
rv32uf-v-fcvt:     file format elf32-littleriscv


Disassembly of section .text.init:

00010000 <_start>:
   10000:	00c0006f          	j	1000c <handle_reset>

00010004 <nmi_vector>:
   10004:	3080206f          	j	1230c <wtf>

00010008 <trap_vector>:
   10008:	3040206f          	j	1230c <wtf>

0001000c <handle_reset>:
   1000c:	00000093          	li	ra,0
   10010:	00000113          	li	sp,0
   10014:	00000193          	li	gp,0
   10018:	00000213          	li	tp,0
   1001c:	00000293          	li	t0,0
   10020:	00000313          	li	t1,0
   10024:	00000393          	li	t2,0
   10028:	00000413          	li	s0,0
   1002c:	00000493          	li	s1,0
   10030:	00000513          	li	a0,0
   10034:	00000593          	li	a1,0
   10038:	00000613          	li	a2,0
   1003c:	00000693          	li	a3,0
   10040:	00000713          	li	a4,0
   10044:	00000793          	li	a5,0
   10048:	00000813          	li	a6,0
   1004c:	00000893          	li	a7,0
   10050:	00000913          	li	s2,0
   10054:	00000993          	li	s3,0
   10058:	00000a13          	li	s4,0
   1005c:	00000a93          	li	s5,0
   10060:	00000b13          	li	s6,0
   10064:	00000b93          	li	s7,0
   10068:	00000c13          	li	s8,0
   1006c:	00000c93          	li	s9,0
   10070:	00000d13          	li	s10,0
   10074:	00000d93          	li	s11,0
   10078:	00000e13          	li	t3,0
   1007c:	00000e93          	li	t4,0
   10080:	00000f13          	li	t5,0
   10084:	00000f93          	li	t6,0
   10088:	00000297          	auipc	t0,0x0
   1008c:	f8028293          	addi	t0,t0,-128 # 10008 <trap_vector>
   10090:	30529073          	csrw	mtvec,t0
   10094:	00008117          	auipc	sp,0x8
   10098:	edc10113          	addi	sp,sp,-292 # 17f70 <freelist_head+0xf6c>
   1009c:	f14022f3          	csrr	t0,mhartid
   100a0:	00c29293          	slli	t0,t0,0xc
   100a4:	00510133          	add	sp,sp,t0
   100a8:	34011073          	csrw	mscratch,sp
   100ac:	131020ef          	jal	ra,129dc <extra_boot>
   100b0:	00003517          	auipc	a0,0x3
   100b4:	93050513          	addi	a0,a0,-1744 # 129e0 <userstart>
   100b8:	7400206f          	j	127f8 <vm_boot>

000100bc <pop_tf>:
   100bc:	08452283          	lw	t0,132(a0)
   100c0:	14129073          	csrw	sepc,t0
   100c4:	00452083          	lw	ra,4(a0)
   100c8:	00852103          	lw	sp,8(a0)
   100cc:	00c52183          	lw	gp,12(a0)
   100d0:	01052203          	lw	tp,16(a0)
   100d4:	01452283          	lw	t0,20(a0)
   100d8:	01852303          	lw	t1,24(a0)
   100dc:	01c52383          	lw	t2,28(a0)
   100e0:	02052403          	lw	s0,32(a0)
   100e4:	02452483          	lw	s1,36(a0)
   100e8:	02c52583          	lw	a1,44(a0)
   100ec:	03052603          	lw	a2,48(a0)
   100f0:	03452683          	lw	a3,52(a0)
   100f4:	03852703          	lw	a4,56(a0)
   100f8:	03c52783          	lw	a5,60(a0)
   100fc:	04052803          	lw	a6,64(a0)
   10100:	04452883          	lw	a7,68(a0)
   10104:	04852903          	lw	s2,72(a0)
   10108:	04c52983          	lw	s3,76(a0)
   1010c:	05052a03          	lw	s4,80(a0)
   10110:	05452a83          	lw	s5,84(a0)
   10114:	05852b03          	lw	s6,88(a0)
   10118:	05c52b83          	lw	s7,92(a0)
   1011c:	06052c03          	lw	s8,96(a0)
   10120:	06452c83          	lw	s9,100(a0)
   10124:	06852d03          	lw	s10,104(a0)
   10128:	06c52d83          	lw	s11,108(a0)
   1012c:	07052e03          	lw	t3,112(a0)
   10130:	07452e83          	lw	t4,116(a0)
   10134:	07852f03          	lw	t5,120(a0)
   10138:	07c52f83          	lw	t6,124(a0)
   1013c:	02852503          	lw	a0,40(a0)
   10140:	10200073          	sret

00010144 <trap_entry>:
   10144:	14011173          	csrrw	sp,sscratch,sp
   10148:	00112223          	sw	ra,4(sp)
   1014c:	00312623          	sw	gp,12(sp)
   10150:	00412823          	sw	tp,16(sp)
   10154:	00512a23          	sw	t0,20(sp)
   10158:	00612c23          	sw	t1,24(sp)
   1015c:	00712e23          	sw	t2,28(sp)
   10160:	02812023          	sw	s0,32(sp)
   10164:	02912223          	sw	s1,36(sp)
   10168:	02a12423          	sw	a0,40(sp)
   1016c:	02b12623          	sw	a1,44(sp)
   10170:	02c12823          	sw	a2,48(sp)
   10174:	02d12a23          	sw	a3,52(sp)
   10178:	02e12c23          	sw	a4,56(sp)
   1017c:	02f12e23          	sw	a5,60(sp)
   10180:	05012023          	sw	a6,64(sp)
   10184:	05112223          	sw	a7,68(sp)
   10188:	05212423          	sw	s2,72(sp)
   1018c:	05312623          	sw	s3,76(sp)
   10190:	05412823          	sw	s4,80(sp)
   10194:	05512a23          	sw	s5,84(sp)
   10198:	05612c23          	sw	s6,88(sp)
   1019c:	05712e23          	sw	s7,92(sp)
   101a0:	07812023          	sw	s8,96(sp)
   101a4:	07912223          	sw	s9,100(sp)
   101a8:	07a12423          	sw	s10,104(sp)
   101ac:	07b12623          	sw	s11,108(sp)
   101b0:	07c12823          	sw	t3,112(sp)
   101b4:	07d12a23          	sw	t4,116(sp)
   101b8:	07e12c23          	sw	t5,120(sp)
   101bc:	07f12e23          	sw	t6,124(sp)
   101c0:	140112f3          	csrrw	t0,sscratch,sp
   101c4:	00512423          	sw	t0,8(sp)
   101c8:	100022f3          	csrr	t0,sstatus
   101cc:	08512023          	sw	t0,128(sp)
   101d0:	141022f3          	csrr	t0,sepc
   101d4:	08512223          	sw	t0,132(sp)
   101d8:	143022f3          	csrr	t0,stval
   101dc:	08512423          	sw	t0,136(sp)
   101e0:	142022f3          	csrr	t0,scause
   101e4:	08512623          	sw	t0,140(sp)
   101e8:	00010513          	mv	a0,sp
   101ec:	3a80206f          	j	12594 <handle_trap>

Disassembly of section .text:

00012000 <memcpy>:
   12000:	00c5e7b3          	or	a5,a1,a2
   12004:	00f567b3          	or	a5,a0,a5
   12008:	0037f793          	andi	a5,a5,3
   1200c:	00c506b3          	add	a3,a0,a2
   12010:	02078463          	beqz	a5,12038 <memcpy+0x38>
   12014:	00c58633          	add	a2,a1,a2
   12018:	00050793          	mv	a5,a0
   1201c:	02d57e63          	bgeu	a0,a3,12058 <memcpy+0x58>
   12020:	0005c703          	lbu	a4,0(a1)
   12024:	00158593          	addi	a1,a1,1
   12028:	00178793          	addi	a5,a5,1
   1202c:	fee78fa3          	sb	a4,-1(a5)
   12030:	fec598e3          	bne	a1,a2,12020 <memcpy+0x20>
   12034:	00008067          	ret
   12038:	fed57ee3          	bgeu	a0,a3,12034 <memcpy+0x34>
   1203c:	00050793          	mv	a5,a0
   12040:	0005a703          	lw	a4,0(a1)
   12044:	00478793          	addi	a5,a5,4
   12048:	00458593          	addi	a1,a1,4
   1204c:	fee7ae23          	sw	a4,-4(a5)
   12050:	fed7e8e3          	bltu	a5,a3,12040 <memcpy+0x40>
   12054:	00008067          	ret
   12058:	00008067          	ret

0001205c <memset>:
   1205c:	ff010113          	addi	sp,sp,-16
   12060:	00c567b3          	or	a5,a0,a2
   12064:	00812423          	sw	s0,8(sp)
   12068:	00112623          	sw	ra,12(sp)
   1206c:	0037f793          	andi	a5,a5,3
   12070:	00050413          	mv	s0,a0
   12074:	00c50733          	add	a4,a0,a2
   12078:	02078263          	beqz	a5,1209c <memset+0x40>
   1207c:	00e57663          	bgeu	a0,a4,12088 <memset+0x2c>
   12080:	0ff5f593          	andi	a1,a1,255
   12084:	fd9ff0ef          	jal	ra,1205c <memset>
   12088:	00c12083          	lw	ra,12(sp)
   1208c:	00040513          	mv	a0,s0
   12090:	00812403          	lw	s0,8(sp)
   12094:	01010113          	addi	sp,sp,16
   12098:	00008067          	ret
   1209c:	0ff5f593          	andi	a1,a1,255
   120a0:	00859693          	slli	a3,a1,0x8
   120a4:	00b6e5b3          	or	a1,a3,a1
   120a8:	01059693          	slli	a3,a1,0x10
   120ac:	00b6e6b3          	or	a3,a3,a1
   120b0:	fce57ce3          	bgeu	a0,a4,12088 <memset+0x2c>
   120b4:	00050793          	mv	a5,a0
   120b8:	00478793          	addi	a5,a5,4
   120bc:	fed7ae23          	sw	a3,-4(a5)
   120c0:	fee7ece3          	bltu	a5,a4,120b8 <memset+0x5c>
   120c4:	00c12083          	lw	ra,12(sp)
   120c8:	00040513          	mv	a0,s0
   120cc:	00812403          	lw	s0,8(sp)
   120d0:	01010113          	addi	sp,sp,16
   120d4:	00008067          	ret

000120d8 <strlen>:
   120d8:	00054783          	lbu	a5,0(a0)
   120dc:	00078e63          	beqz	a5,120f8 <strlen+0x20>
   120e0:	00050793          	mv	a5,a0
   120e4:	0017c703          	lbu	a4,1(a5)
   120e8:	00178793          	addi	a5,a5,1
   120ec:	fe071ce3          	bnez	a4,120e4 <strlen+0xc>
   120f0:	40a78533          	sub	a0,a5,a0
   120f4:	00008067          	ret
   120f8:	00000513          	li	a0,0
   120fc:	00008067          	ret

00012100 <strcmp>:
   12100:	00054783          	lbu	a5,0(a0)
   12104:	00158593          	addi	a1,a1,1
   12108:	00150513          	addi	a0,a0,1
   1210c:	fff5c703          	lbu	a4,-1(a1)
   12110:	00078863          	beqz	a5,12120 <strcmp+0x20>
   12114:	fee786e3          	beq	a5,a4,12100 <strcmp>
   12118:	40e78533          	sub	a0,a5,a4
   1211c:	00008067          	ret
   12120:	00000793          	li	a5,0
   12124:	ff5ff06f          	j	12118 <strcmp+0x18>

00012128 <memcmp>:
   12128:	00b567b3          	or	a5,a0,a1
   1212c:	0037f793          	andi	a5,a5,3
   12130:	02079e63          	bnez	a5,1216c <memcmp+0x44>
   12134:	ffc67813          	andi	a6,a2,-4
   12138:	01050833          	add	a6,a0,a6
   1213c:	03057863          	bgeu	a0,a6,1216c <memcmp+0x44>
   12140:	00050793          	mv	a5,a0
   12144:	0100006f          	j	12154 <memcmp+0x2c>
   12148:	00478793          	addi	a5,a5,4
   1214c:	00458593          	addi	a1,a1,4
   12150:	0107f863          	bgeu	a5,a6,12160 <memcmp+0x38>
   12154:	0007a683          	lw	a3,0(a5)
   12158:	0005a703          	lw	a4,0(a1)
   1215c:	fee686e3          	beq	a3,a4,12148 <memcmp+0x20>
   12160:	40a78533          	sub	a0,a5,a0
   12164:	40a60633          	sub	a2,a2,a0
   12168:	00078513          	mv	a0,a5
   1216c:	00c58633          	add	a2,a1,a2
   12170:	0140006f          	j	12184 <memcmp+0x5c>
   12174:	0005c703          	lbu	a4,0(a1)
   12178:	fff54783          	lbu	a5,-1(a0)
   1217c:	00158593          	addi	a1,a1,1
   12180:	00e79a63          	bne	a5,a4,12194 <memcmp+0x6c>
   12184:	00150513          	addi	a0,a0,1
   12188:	fec596e3          	bne	a1,a2,12174 <memcmp+0x4c>
   1218c:	00000513          	li	a0,0
   12190:	00008067          	ret
   12194:	40e78533          	sub	a0,a5,a4
   12198:	00008067          	ret

0001219c <strcpy>:
   1219c:	00050793          	mv	a5,a0
   121a0:	0005c703          	lbu	a4,0(a1)
   121a4:	00178793          	addi	a5,a5,1
   121a8:	00158593          	addi	a1,a1,1
   121ac:	fee78fa3          	sb	a4,-1(a5)
   121b0:	fe0718e3          	bnez	a4,121a0 <strcpy+0x4>
   121b4:	00008067          	ret

000121b8 <atol>:
   121b8:	00054703          	lbu	a4,0(a0)
   121bc:	02000693          	li	a3,32
   121c0:	00050793          	mv	a5,a0
   121c4:	00d71863          	bne	a4,a3,121d4 <atol+0x1c>
   121c8:	0017c703          	lbu	a4,1(a5)
   121cc:	00178793          	addi	a5,a5,1
   121d0:	fed70ce3          	beq	a4,a3,121c8 <atol+0x10>
   121d4:	02d00693          	li	a3,45
   121d8:	06d70063          	beq	a4,a3,12238 <atol+0x80>
   121dc:	02b00693          	li	a3,43
   121e0:	04d70063          	beq	a4,a3,12220 <atol+0x68>
   121e4:	0007c683          	lbu	a3,0(a5)
   121e8:	00000593          	li	a1,0
   121ec:	04068263          	beqz	a3,12230 <atol+0x78>
   121f0:	00000513          	li	a0,0
   121f4:	00178793          	addi	a5,a5,1
   121f8:	fd068613          	addi	a2,a3,-48
   121fc:	00251713          	slli	a4,a0,0x2
   12200:	0007c683          	lbu	a3,0(a5)
   12204:	00a70533          	add	a0,a4,a0
   12208:	00151513          	slli	a0,a0,0x1
   1220c:	00a60533          	add	a0,a2,a0
   12210:	fe0692e3          	bnez	a3,121f4 <atol+0x3c>
   12214:	02058063          	beqz	a1,12234 <atol+0x7c>
   12218:	40a00533          	neg	a0,a0
   1221c:	00008067          	ret
   12220:	0017c683          	lbu	a3,1(a5)
   12224:	00000593          	li	a1,0
   12228:	00178793          	addi	a5,a5,1
   1222c:	fc0692e3          	bnez	a3,121f0 <atol+0x38>
   12230:	00000513          	li	a0,0
   12234:	00008067          	ret
   12238:	0017c683          	lbu	a3,1(a5)
   1223c:	00100593          	li	a1,1
   12240:	00178793          	addi	a5,a5,1
   12244:	fa0696e3          	bnez	a3,121f0 <atol+0x38>
   12248:	00000513          	li	a0,0
   1224c:	fe9ff06f          	j	12234 <atol+0x7c>

00012250 <cputstring>:
   12250:	00054583          	lbu	a1,0(a0)
   12254:	06058063          	beqz	a1,122b4 <cputstring+0x64>
   12258:	fffff697          	auipc	a3,0xfffff
   1225c:	da868693          	addi	a3,a3,-600 # 11000 <tohost>
   12260:	fffff617          	auipc	a2,0xfffff
   12264:	de060613          	addi	a2,a2,-544 # 11040 <fromhost>
   12268:	0006a703          	lw	a4,0(a3)
   1226c:	0046a783          	lw	a5,4(a3)
   12270:	00058813          	mv	a6,a1
   12274:	00150513          	addi	a0,a0,1
   12278:	00f76733          	or	a4,a4,a5
   1227c:	010108b7          	lui	a7,0x1010
   12280:	02070263          	beqz	a4,122a4 <cputstring+0x54>
   12284:	00000713          	li	a4,0
   12288:	00e62023          	sw	a4,0(a2)
   1228c:	00000793          	li	a5,0
   12290:	00f62223          	sw	a5,4(a2)
   12294:	0006a703          	lw	a4,0(a3)
   12298:	0046a783          	lw	a5,4(a3)
   1229c:	00f76733          	or	a4,a4,a5
   122a0:	fe0712e3          	bnez	a4,12284 <cputstring+0x34>
   122a4:	0106a023          	sw	a6,0(a3)
   122a8:	0116a223          	sw	a7,4(a3)
   122ac:	00054583          	lbu	a1,0(a0)
   122b0:	fa059ce3          	bnez	a1,12268 <cputstring+0x18>
   122b4:	00008067          	ret

000122b8 <terminate>:
   122b8:	fffff697          	auipc	a3,0xfffff
   122bc:	d4868693          	addi	a3,a3,-696 # 11000 <tohost>
   122c0:	0006a703          	lw	a4,0(a3)
   122c4:	0046a783          	lw	a5,4(a3)
   122c8:	00050813          	mv	a6,a0
   122cc:	41f55893          	srai	a7,a0,0x1f
   122d0:	00f76733          	or	a4,a4,a5
   122d4:	02070663          	beqz	a4,12300 <terminate+0x48>
   122d8:	fffff617          	auipc	a2,0xfffff
   122dc:	d6860613          	addi	a2,a2,-664 # 11040 <fromhost>
   122e0:	00000713          	li	a4,0
   122e4:	00e62023          	sw	a4,0(a2)
   122e8:	00000793          	li	a5,0
   122ec:	00f62223          	sw	a5,4(a2)
   122f0:	0006a703          	lw	a4,0(a3)
   122f4:	0046a783          	lw	a5,4(a3)
   122f8:	00f76733          	or	a4,a4,a5
   122fc:	fe0712e3          	bnez	a4,122e0 <terminate+0x28>
   12300:	0106a023          	sw	a6,0(a3)
   12304:	0116a223          	sw	a7,4(a3)
   12308:	0000006f          	j	12308 <terminate+0x50>

0001230c <wtf>:
   1230c:	ff010113          	addi	sp,sp,-16
   12310:	34900513          	li	a0,841
   12314:	00112623          	sw	ra,12(sp)
   12318:	fa1ff0ef          	jal	ra,122b8 <terminate>

0001231c <printhex>:
   1231c:	fe010113          	addi	sp,sp,-32
   12320:	00c10613          	addi	a2,sp,12
   12324:	01b10713          	addi	a4,sp,27
   12328:	00900313          	li	t1,9
   1232c:	0080006f          	j	12334 <printhex+0x18>
   12330:	00078713          	mv	a4,a5
   12334:	00f57793          	andi	a5,a0,15
   12338:	00f337b3          	sltu	a5,t1,a5
   1233c:	40f007b3          	neg	a5,a5
   12340:	0277f793          	andi	a5,a5,39
   12344:	00f57693          	andi	a3,a0,15
   12348:	03078793          	addi	a5,a5,48
   1234c:	00f687b3          	add	a5,a3,a5
   12350:	00f70023          	sb	a5,0(a4)
   12354:	01c59693          	slli	a3,a1,0x1c
   12358:	00455513          	srli	a0,a0,0x4
   1235c:	fff70793          	addi	a5,a4,-1
   12360:	00a6e533          	or	a0,a3,a0
   12364:	0045d593          	srli	a1,a1,0x4
   12368:	fce614e3          	bne	a2,a4,12330 <printhex+0x14>
   1236c:	00c14503          	lbu	a0,12(sp)
   12370:	00010e23          	sb	zero,28(sp)
   12374:	06050263          	beqz	a0,123d8 <printhex+0xbc>
   12378:	00060593          	mv	a1,a2
   1237c:	fffff697          	auipc	a3,0xfffff
   12380:	c8468693          	addi	a3,a3,-892 # 11000 <tohost>
   12384:	fffff617          	auipc	a2,0xfffff
   12388:	cbc60613          	addi	a2,a2,-836 # 11040 <fromhost>
   1238c:	0006a703          	lw	a4,0(a3)
   12390:	0046a783          	lw	a5,4(a3)
   12394:	00050813          	mv	a6,a0
   12398:	00158593          	addi	a1,a1,1
   1239c:	00f76733          	or	a4,a4,a5
   123a0:	010108b7          	lui	a7,0x1010
   123a4:	02070263          	beqz	a4,123c8 <printhex+0xac>
   123a8:	00000713          	li	a4,0
   123ac:	00e62023          	sw	a4,0(a2)
   123b0:	00000793          	li	a5,0
   123b4:	00f62223          	sw	a5,4(a2)
   123b8:	0006a703          	lw	a4,0(a3)
   123bc:	0046a783          	lw	a5,4(a3)
   123c0:	00f76733          	or	a4,a4,a5
   123c4:	fe0712e3          	bnez	a4,123a8 <printhex+0x8c>
   123c8:	0005c503          	lbu	a0,0(a1)
   123cc:	0106a023          	sw	a6,0(a3)
   123d0:	0116a223          	sw	a7,4(a3)
   123d4:	fa051ce3          	bnez	a0,1238c <printhex+0x70>
   123d8:	02010113          	addi	sp,sp,32
   123dc:	00008067          	ret

000123e0 <handle_fault>:
   123e0:	ff010113          	addi	sp,sp,-16
   123e4:	fffff6b7          	lui	a3,0xfffff
   123e8:	00112623          	sw	ra,12(sp)
   123ec:	00d50733          	add	a4,a0,a3
   123f0:	0003e7b7          	lui	a5,0x3e
   123f4:	14f77863          	bgeu	a4,a5,12544 <handle_fault+0x164>
   123f8:	00c55893          	srli	a7,a0,0xc
   123fc:	40088813          	addi	a6,a7,1024 # 1010400 <freelist_head+0xff93fc>
   12400:	00003617          	auipc	a2,0x3
   12404:	c0060613          	addi	a2,a2,-1024 # 15000 <pt>
   12408:	00281793          	slli	a5,a6,0x2
   1240c:	00f607b3          	add	a5,a2,a5
   12410:	0007a703          	lw	a4,0(a5) # 3e000 <freelist_head+0x26ffc>
   12414:	00d57533          	and	a0,a0,a3
   12418:	0e071063          	bnez	a4,124f8 <handle_fault+0x118>
   1241c:	00005697          	auipc	a3,0x5
   12420:	be868693          	addi	a3,a3,-1048 # 17004 <freelist_head>
   12424:	0006a703          	lw	a4,0(a3)
   12428:	14070263          	beqz	a4,1256c <handle_fault+0x18c>
   1242c:	00472783          	lw	a5,4(a4)
   12430:	00005597          	auipc	a1,0x5
   12434:	bd05a583          	lw	a1,-1072(a1) # 17000 <freelist_tail>
   12438:	00f6a023          	sw	a5,0(a3)
   1243c:	0eb78e63          	beq	a5,a1,12538 <handle_fault+0x158>
   12440:	00072783          	lw	a5,0(a4)
   12444:	00281593          	slli	a1,a6,0x2
   12448:	00b605b3          	add	a1,a2,a1
   1244c:	00c7d793          	srli	a5,a5,0xc
   12450:	00a79793          	slli	a5,a5,0xa
   12454:	0df7e313          	ori	t1,a5,223
   12458:	01f7e693          	ori	a3,a5,31
   1245c:	0065a023          	sw	t1,0(a1)
   12460:	12050073          	sfence.vma	a0
   12464:	00002797          	auipc	a5,0x2
   12468:	b9c78793          	addi	a5,a5,-1124 # 14000 <user_mapping>
   1246c:	00389893          	slli	a7,a7,0x3
   12470:	011788b3          	add	a7,a5,a7
   12474:	0008a783          	lw	a5,0(a7)
   12478:	10079463          	bnez	a5,12580 <handle_fault+0x1a0>
   1247c:	00072783          	lw	a5,0(a4)
   12480:	00f8a023          	sw	a5,0(a7)
   12484:	00472783          	lw	a5,4(a4)
   12488:	00f8a223          	sw	a5,4(a7)
   1248c:	000408b7          	lui	a7,0x40
   12490:	1008a8f3          	csrrs	a7,sstatus,a7
   12494:	ffc007b7          	lui	a5,0xffc00
   12498:	00f507b3          	add	a5,a0,a5
   1249c:	000015b7          	lui	a1,0x1
   124a0:	00050713          	mv	a4,a0
   124a4:	00b785b3          	add	a1,a5,a1
   124a8:	0007af03          	lw	t5,0(a5) # ffc00000 <freelist_head+0xffbe8ffc>
   124ac:	0047ae83          	lw	t4,4(a5)
   124b0:	0087ae03          	lw	t3,8(a5)
   124b4:	00c7a303          	lw	t1,12(a5)
   124b8:	01e72023          	sw	t5,0(a4)
   124bc:	01d72223          	sw	t4,4(a4)
   124c0:	01c72423          	sw	t3,8(a4)
   124c4:	00672623          	sw	t1,12(a4)
   124c8:	01078793          	addi	a5,a5,16
   124cc:	01070713          	addi	a4,a4,16
   124d0:	fcb79ce3          	bne	a5,a1,124a8 <handle_fault+0xc8>
   124d4:	10089073          	csrw	sstatus,a7
   124d8:	00281813          	slli	a6,a6,0x2
   124dc:	01060633          	add	a2,a2,a6
   124e0:	00d62023          	sw	a3,0(a2)
   124e4:	12050073          	sfence.vma	a0
   124e8:	0000100f          	fence.i
   124ec:	00c12083          	lw	ra,12(sp)
   124f0:	01010113          	addi	sp,sp,16
   124f4:	00008067          	ret
   124f8:	04077693          	andi	a3,a4,64
   124fc:	02068663          	beqz	a3,12528 <handle_fault+0x148>
   12500:	08077693          	andi	a3,a4,128
   12504:	04069a63          	bnez	a3,12558 <handle_fault+0x178>
   12508:	00f00693          	li	a3,15
   1250c:	04d59663          	bne	a1,a3,12558 <handle_fault+0x178>
   12510:	08076713          	ori	a4,a4,128
   12514:	00e7a023          	sw	a4,0(a5)
   12518:	12050073          	sfence.vma	a0
   1251c:	00c12083          	lw	ra,12(sp)
   12520:	01010113          	addi	sp,sp,16
   12524:	00008067          	ret
   12528:	04076713          	ori	a4,a4,64
   1252c:	00e7a023          	sw	a4,0(a5)
   12530:	12050073          	sfence.vma	a0
   12534:	fe9ff06f          	j	1251c <handle_fault+0x13c>
   12538:	00005797          	auipc	a5,0x5
   1253c:	ac07a423          	sw	zero,-1336(a5) # 17000 <freelist_tail>
   12540:	f01ff06f          	j	12440 <handle_fault+0x60>
   12544:	00000517          	auipc	a0,0x0
   12548:	55050513          	addi	a0,a0,1360 # 12a94 <pass+0xc>
   1254c:	d05ff0ef          	jal	ra,12250 <cputstring>
   12550:	00300513          	li	a0,3
   12554:	d65ff0ef          	jal	ra,122b8 <terminate>
   12558:	00000517          	auipc	a0,0x0
   1255c:	58050513          	addi	a0,a0,1408 # 12ad8 <pass+0x50>
   12560:	cf1ff0ef          	jal	ra,12250 <cputstring>
   12564:	00300513          	li	a0,3
   12568:	d51ff0ef          	jal	ra,122b8 <terminate>
   1256c:	00000517          	auipc	a0,0x0
   12570:	5b450513          	addi	a0,a0,1460 # 12b20 <pass+0x98>
   12574:	cddff0ef          	jal	ra,12250 <cputstring>
   12578:	00300513          	li	a0,3
   1257c:	d3dff0ef          	jal	ra,122b8 <terminate>
   12580:	00000517          	auipc	a0,0x0
   12584:	5b850513          	addi	a0,a0,1464 # 12b38 <pass+0xb0>
   12588:	cc9ff0ef          	jal	ra,12250 <cputstring>
   1258c:	00300513          	li	a0,3
   12590:	d29ff0ef          	jal	ra,122b8 <terminate>

00012594 <handle_trap>:
   12594:	08c52583          	lw	a1,140(a0)
   12598:	fb010113          	addi	sp,sp,-80
   1259c:	04812423          	sw	s0,72(sp)
   125a0:	04112623          	sw	ra,76(sp)
   125a4:	04912223          	sw	s1,68(sp)
   125a8:	05212023          	sw	s2,64(sp)
   125ac:	03312e23          	sw	s3,60(sp)
   125b0:	03412c23          	sw	s4,56(sp)
   125b4:	03512a23          	sw	s5,52(sp)
   125b8:	03612823          	sw	s6,48(sp)
   125bc:	03712623          	sw	s7,44(sp)
   125c0:	03812423          	sw	s8,40(sp)
   125c4:	03912223          	sw	s9,36(sp)
   125c8:	03a12023          	sw	s10,32(sp)
   125cc:	01b12e23          	sw	s11,28(sp)
   125d0:	00800793          	li	a5,8
   125d4:	00050413          	mv	s0,a0
   125d8:	10f58a63          	beq	a1,a5,126ec <handle_trap+0x158>
   125dc:	00200793          	li	a5,2
   125e0:	06f58063          	beq	a1,a5,12640 <handle_trap+0xac>
   125e4:	ff458793          	addi	a5,a1,-12 # ff4 <_start-0xf00c>
   125e8:	00100713          	li	a4,1
   125ec:	00f77663          	bgeu	a4,a5,125f8 <handle_trap+0x64>
   125f0:	00f00793          	li	a5,15
   125f4:	1cf59263          	bne	a1,a5,127b8 <handle_trap+0x224>
   125f8:	08842503          	lw	a0,136(s0)
   125fc:	de5ff0ef          	jal	ra,123e0 <handle_fault>
   12600:	00040513          	mv	a0,s0
   12604:	04812403          	lw	s0,72(sp)
   12608:	04c12083          	lw	ra,76(sp)
   1260c:	04412483          	lw	s1,68(sp)
   12610:	04012903          	lw	s2,64(sp)
   12614:	03c12983          	lw	s3,60(sp)
   12618:	03812a03          	lw	s4,56(sp)
   1261c:	03412a83          	lw	s5,52(sp)
   12620:	03012b03          	lw	s6,48(sp)
   12624:	02c12b83          	lw	s7,44(sp)
   12628:	02812c03          	lw	s8,40(sp)
   1262c:	02412c83          	lw	s9,36(sp)
   12630:	02012d03          	lw	s10,32(sp)
   12634:	01c12d83          	lw	s11,28(sp)
   12638:	05010113          	addi	sp,sp,80
   1263c:	a81fd06f          	j	100bc <pop_tf>
   12640:	08452703          	lw	a4,132(a0)
   12644:	00377793          	andi	a5,a4,3
   12648:	08079863          	bnez	a5,126d8 <handle_trap+0x144>
   1264c:	008007ef          	jal	a5,12654 <handle_trap+0xc0>
   12650:	00301073          	fscsr	zero
   12654:	00072703          	lw	a4,0(a4)
   12658:	0007a783          	lw	a5,0(a5)
   1265c:	06f70a63          	beq	a4,a5,126d0 <handle_trap+0x13c>
   12660:	04100513          	li	a0,65
   12664:	00000597          	auipc	a1,0x0
   12668:	51058593          	addi	a1,a1,1296 # 12b74 <pass+0xec>
   1266c:	fffff697          	auipc	a3,0xfffff
   12670:	99468693          	addi	a3,a3,-1644 # 11000 <tohost>
   12674:	fffff617          	auipc	a2,0xfffff
   12678:	9cc60613          	addi	a2,a2,-1588 # 11040 <fromhost>
   1267c:	0006a703          	lw	a4,0(a3)
   12680:	0046a783          	lw	a5,4(a3)
   12684:	00050813          	mv	a6,a0
   12688:	00158593          	addi	a1,a1,1
   1268c:	00f76733          	or	a4,a4,a5
   12690:	010108b7          	lui	a7,0x1010
   12694:	02070263          	beqz	a4,126b8 <handle_trap+0x124>
   12698:	00000713          	li	a4,0
   1269c:	00e62023          	sw	a4,0(a2)
   126a0:	00000793          	li	a5,0
   126a4:	00f62223          	sw	a5,4(a2)
   126a8:	0006a703          	lw	a4,0(a3)
   126ac:	0046a783          	lw	a5,4(a3)
   126b0:	00f76733          	or	a4,a4,a5
   126b4:	fe0712e3          	bnez	a4,12698 <handle_trap+0x104>
   126b8:	0005c503          	lbu	a0,0(a1)
   126bc:	0106a023          	sw	a6,0(a3)
   126c0:	0116a223          	sw	a7,4(a3)
   126c4:	fa051ce3          	bnez	a0,1267c <handle_trap+0xe8>
   126c8:	00300513          	li	a0,3
   126cc:	bedff0ef          	jal	ra,122b8 <terminate>
   126d0:	00100513          	li	a0,1
   126d4:	be5ff0ef          	jal	ra,122b8 <terminate>
   126d8:	00000517          	auipc	a0,0x0
   126dc:	53050513          	addi	a0,a0,1328 # 12c08 <pass+0x180>
   126e0:	b71ff0ef          	jal	ra,12250 <cputstring>
   126e4:	00300513          	li	a0,3
   126e8:	bd1ff0ef          	jal	ra,122b8 <terminate>
   126ec:	02852903          	lw	s2,40(a0)
   126f0:	00001c37          	lui	s8,0x1
   126f4:	00002497          	auipc	s1,0x2
   126f8:	90c48493          	addi	s1,s1,-1780 # 14000 <user_mapping>
   126fc:	00003b97          	auipc	s7,0x3
   12700:	904b8b93          	addi	s7,s7,-1788 # 15000 <pt>
   12704:	00040b37          	lui	s6,0x40
   12708:	ffc00ab7          	lui	s5,0xffc00
   1270c:	00005d97          	auipc	s11,0x5
   12710:	8f4d8d93          	addi	s11,s11,-1804 # 17000 <freelist_tail>
   12714:	00005a17          	auipc	s4,0x5
   12718:	8f0a0a13          	addi	s4,s4,-1808 # 17004 <freelist_head>
   1271c:	0003f9b7          	lui	s3,0x3f
   12720:	0180006f          	j	12738 <handle_trap+0x1a4>
   12724:	00f72223          	sw	a5,4(a4)
   12728:	00fda023          	sw	a5,0(s11)
   1272c:	000017b7          	lui	a5,0x1
   12730:	00fc0c33          	add	s8,s8,a5
   12734:	0b3c0e63          	beq	s8,s3,127f0 <handle_trap+0x25c>
   12738:	00cc5793          	srli	a5,s8,0xc
   1273c:	00379413          	slli	s0,a5,0x3
   12740:	00848733          	add	a4,s1,s0
   12744:	00072703          	lw	a4,0(a4)
   12748:	fe0702e3          	beqz	a4,1272c <handle_trap+0x198>
   1274c:	40078793          	addi	a5,a5,1024 # 1400 <_start-0xec00>
   12750:	00279793          	slli	a5,a5,0x2
   12754:	00fb87b3          	add	a5,s7,a5
   12758:	0007ac83          	lw	s9,0(a5)
   1275c:	040cf793          	andi	a5,s9,64
   12760:	06078e63          	beqz	a5,127dc <handle_trap+0x248>
   12764:	100b2d73          	csrrs	s10,sstatus,s6
   12768:	00001637          	lui	a2,0x1
   1276c:	015c05b3          	add	a1,s8,s5
   12770:	000c0513          	mv	a0,s8
   12774:	00b12623          	sw	a1,12(sp)
   12778:	9b1ff0ef          	jal	ra,12128 <memcmp>
   1277c:	00050e63          	beqz	a0,12798 <handle_trap+0x204>
   12780:	080cfc93          	andi	s9,s9,128
   12784:	00c12583          	lw	a1,12(sp)
   12788:	040c8063          	beqz	s9,127c8 <handle_trap+0x234>
   1278c:	00001637          	lui	a2,0x1
   12790:	000c0513          	mv	a0,s8
   12794:	86dff0ef          	jal	ra,12000 <memcpy>
   12798:	008487b3          	add	a5,s1,s0
   1279c:	100d1073          	csrw	sstatus,s10
   127a0:	000da703          	lw	a4,0(s11)
   127a4:	0007a023          	sw	zero,0(a5)
   127a8:	f6071ee3          	bnez	a4,12724 <handle_trap+0x190>
   127ac:	00fda023          	sw	a5,0(s11)
   127b0:	00fa2023          	sw	a5,0(s4)
   127b4:	f79ff06f          	j	1272c <handle_trap+0x198>
   127b8:	00000517          	auipc	a0,0x0
   127bc:	47450513          	addi	a0,a0,1140 # 12c2c <pass+0x1a4>
   127c0:	a91ff0ef          	jal	ra,12250 <cputstring>
   127c4:	f05ff06f          	j	126c8 <handle_trap+0x134>
   127c8:	00000517          	auipc	a0,0x0
   127cc:	40c50513          	addi	a0,a0,1036 # 12bd4 <pass+0x14c>
   127d0:	a81ff0ef          	jal	ra,12250 <cputstring>
   127d4:	00300513          	li	a0,3
   127d8:	ae1ff0ef          	jal	ra,122b8 <terminate>
   127dc:	00000517          	auipc	a0,0x0
   127e0:	3c450513          	addi	a0,a0,964 # 12ba0 <pass+0x118>
   127e4:	a6dff0ef          	jal	ra,12250 <cputstring>
   127e8:	00300513          	li	a0,3
   127ec:	acdff0ef          	jal	ra,122b8 <terminate>
   127f0:	00090513          	mv	a0,s2
   127f4:	ac5ff0ef          	jal	ra,122b8 <terminate>

000127f8 <vm_boot>:
   127f8:	f14027f3          	csrr	a5,mhartid
   127fc:	16079663          	bnez	a5,12968 <vm_boot+0x170>
   12800:	00004617          	auipc	a2,0x4
   12804:	80060613          	addi	a2,a2,-2048 # 16000 <pt+0x1000>
   12808:	00c65793          	srli	a5,a2,0xc
   1280c:	f6010113          	addi	sp,sp,-160
   12810:	00a79793          	slli	a5,a5,0xa
   12814:	08112e23          	sw	ra,156(sp)
   12818:	08812c23          	sw	s0,152(sp)
   1281c:	00002597          	auipc	a1,0x2
   12820:	7e458593          	addi	a1,a1,2020 # 15000 <pt>
   12824:	0017e793          	ori	a5,a5,1
   12828:	00f5a023          	sw	a5,0(a1)
   1282c:	200007b7          	lui	a5,0x20000
   12830:	00c5d693          	srli	a3,a1,0xc
   12834:	80000737          	lui	a4,0x80000
   12838:	0cf78793          	addi	a5,a5,207 # 200000cf <freelist_head+0x1ffe90cb>
   1283c:	fef62e23          	sw	a5,-4(a2)
   12840:	00e6e7b3          	or	a5,a3,a4
   12844:	18079073          	csrw	satp,a5
   12848:	180026f3          	csrr	a3,satp
   1284c:	16d79e63          	bne	a5,a3,129c8 <vm_boot+0x1d0>
   12850:	00050413          	mv	s0,a0
   12854:	fff74713          	not	a4,a4
   12858:	01f00793          	li	a5,31
   1285c:	00000297          	auipc	t0,0x0
   12860:	01428293          	addi	t0,t0,20 # 12870 <vm_boot+0x78>
   12864:	305292f3          	csrrw	t0,mtvec,t0
   12868:	3b071073          	csrw	pmpaddr0,a4
   1286c:	3a079073          	csrw	pmpcfg0,a5
   12870:	30529073          	csrw	mtvec,t0
   12874:	7fbfe797          	auipc	a5,0x7fbfe
   12878:	8d078793          	addi	a5,a5,-1840 # 7fc10144 <freelist_head+0x7fbf9140>
   1287c:	10579073          	csrw	stvec,a5
   12880:	340027f3          	csrr	a5,mscratch
   12884:	7fc008b7          	lui	a7,0x7fc00
   12888:	011787b3          	add	a5,a5,a7
   1288c:	14079073          	csrw	sscratch,a5
   12890:	0000b7b7          	lui	a5,0xb
   12894:	10078793          	addi	a5,a5,256 # b100 <_start-0x4f00>
   12898:	30279073          	csrw	medeleg,a5
   1289c:	0001e7b7          	lui	a5,0x1e
   128a0:	60078793          	addi	a5,a5,1536 # 1e600 <freelist_head+0x75fc>
   128a4:	30079073          	csrw	mstatus,a5
   128a8:	30405073          	csrwi	mie,0
   128ac:	7fc02797          	auipc	a5,0x7fc02
   128b0:	94c78793          	addi	a5,a5,-1716 # 7fc141f8 <freelist_head+0x7fbfd1f4>
   128b4:	00004717          	auipc	a4,0x4
   128b8:	74f72823          	sw	a5,1872(a4) # 17004 <freelist_head>
   128bc:	7fc02797          	auipc	a5,0x7fc02
   128c0:	b2c78793          	addi	a5,a5,-1236 # 7fc143e8 <freelist_head+0x7fbfd3e4>
   128c4:	00004717          	auipc	a4,0x4
   128c8:	72f72e23          	sw	a5,1852(a4) # 17000 <freelist_tail>
   128cc:	00080337          	lui	t1,0x80
   128d0:	00002717          	auipc	a4,0x2
   128d4:	92870713          	addi	a4,a4,-1752 # 141f8 <freelist_nodes>
   128d8:	00002e17          	auipc	t3,0x2
   128dc:	b18e0e13          	addi	t3,t3,-1256 # 143f0 <freelist_nodes+0x1f8>
   128e0:	03200793          	li	a5,50
   128e4:	00000593          	li	a1,0
   128e8:	03f30313          	addi	t1,t1,63 # 8003f <freelist_head+0x6903b>
   128ec:	00888893          	addi	a7,a7,8 # 7fc00008 <freelist_head+0x7fbe9004>
   128f0:	01f59613          	slli	a2,a1,0x1f
   128f4:	0017d693          	srli	a3,a5,0x1
   128f8:	00d666b3          	or	a3,a2,a3
   128fc:	00678633          	add	a2,a5,t1
   12900:	00f6c7b3          	xor	a5,a3,a5
   12904:	01170833          	add	a6,a4,a7
   12908:	00c61613          	slli	a2,a2,0xc
   1290c:	00579793          	slli	a5,a5,0x5
   12910:	00c72023          	sw	a2,0(a4)
   12914:	01072223          	sw	a6,4(a4)
   12918:	0207f793          	andi	a5,a5,32
   1291c:	00870713          	addi	a4,a4,8
   12920:	00f6e7b3          	or	a5,a3,a5
   12924:	0015d593          	srli	a1,a1,0x1
   12928:	fcee14e3          	bne	t3,a4,128f0 <vm_boot+0xf8>
   1292c:	09000613          	li	a2,144
   12930:	00000593          	li	a1,0
   12934:	00010513          	mv	a0,sp
   12938:	00002797          	auipc	a5,0x2
   1293c:	aa07aa23          	sw	zero,-1356(a5) # 143ec <freelist_nodes+0x1f4>
   12940:	f1cff0ef          	jal	ra,1205c <memset>
   12944:	800007b7          	lui	a5,0x80000
   12948:	00f40433          	add	s0,s0,a5
   1294c:	00010513          	mv	a0,sp
   12950:	08812223          	sw	s0,132(sp)
   12954:	f68fd0ef          	jal	ra,100bc <pop_tf>
   12958:	09c12083          	lw	ra,156(sp)
   1295c:	09812403          	lw	s0,152(sp)
   12960:	0a010113          	addi	sp,sp,160
   12964:	00008067          	ret
   12968:	072117b7          	lui	a5,0x7211
   1296c:	00080637          	lui	a2,0x80
   12970:	20978793          	addi	a5,a5,521 # 7211209 <freelist_head+0x71fa205>
   12974:	00000713          	li	a4,0
   12978:	ffc60613          	addi	a2,a2,-4 # 7fffc <freelist_head+0x68ff8>
   1297c:	80000837          	lui	a6,0x80000
   12980:	40000537          	lui	a0,0x40000
   12984:	02c0006f          	j	129b0 <vm_boot+0x1b8>
   12988:	0006a02f          	amoadd.w	zero,zero,(a3)
   1298c:	01f71593          	slli	a1,a4,0x1f
   12990:	0017d693          	srli	a3,a5,0x1
   12994:	00d5e6b3          	or	a3,a1,a3
   12998:	00d7c7b3          	xor	a5,a5,a3
   1299c:	01e79793          	slli	a5,a5,0x1e
   129a0:	00f575b3          	and	a1,a0,a5
   129a4:	00175713          	srli	a4,a4,0x1
   129a8:	00068793          	mv	a5,a3
   129ac:	00e5e733          	or	a4,a1,a4
   129b0:	00c7f6b3          	and	a3,a5,a2
   129b4:	0017f593          	andi	a1,a5,1
   129b8:	010686b3          	add	a3,a3,a6
   129bc:	fc0596e3          	bnez	a1,12988 <vm_boot+0x190>
   129c0:	0006a003          	lw	zero,0(a3)
   129c4:	fc9ff06f          	j	1298c <vm_boot+0x194>
   129c8:	00000517          	auipc	a0,0x0
   129cc:	29050513          	addi	a0,a0,656 # 12c58 <pass+0x1d0>
   129d0:	881ff0ef          	jal	ra,12250 <cputstring>
   129d4:	00300513          	li	a0,3
   129d8:	8e1ff0ef          	jal	ra,122b8 <terminate>

000129dc <extra_boot>:
   129dc:	00008067          	ret

000129e0 <userstart>:
   129e0:	00301073          	fscsr	zero

000129e4 <test_2>:
   129e4:	00200193          	li	gp,2
   129e8:	00000517          	auipc	a0,0x0
   129ec:	61850513          	addi	a0,a0,1560 # 13000 <test_2_data>
   129f0:	00052683          	lw	a3,0(a0)
   129f4:	00200513          	li	a0,2
   129f8:	d0057053          	fcvt.s.w	ft0,a0
   129fc:	00101073          	fsflags	zero
   12a00:	e0000553          	fmv.x.w	a0,ft0
   12a04:	06d51a63          	bne	a0,a3,12a78 <fail>

00012a08 <test_3>:
   12a08:	00300193          	li	gp,3
   12a0c:	00000517          	auipc	a0,0x0
   12a10:	5f850513          	addi	a0,a0,1528 # 13004 <test_3_data>
   12a14:	00052683          	lw	a3,0(a0)
   12a18:	ffe00513          	li	a0,-2
   12a1c:	d0057053          	fcvt.s.w	ft0,a0
   12a20:	00101073          	fsflags	zero
   12a24:	e0000553          	fmv.x.w	a0,ft0
   12a28:	04d51863          	bne	a0,a3,12a78 <fail>

00012a2c <test_4>:
   12a2c:	00400193          	li	gp,4
   12a30:	00000517          	auipc	a0,0x0
   12a34:	5d850513          	addi	a0,a0,1496 # 13008 <test_4_data>
   12a38:	00052683          	lw	a3,0(a0)
   12a3c:	00200513          	li	a0,2
   12a40:	d0157053          	fcvt.s.wu	ft0,a0
   12a44:	00101073          	fsflags	zero
   12a48:	e0000553          	fmv.x.w	a0,ft0
   12a4c:	02d51663          	bne	a0,a3,12a78 <fail>

00012a50 <test_5>:
   12a50:	00500193          	li	gp,5
   12a54:	00000517          	auipc	a0,0x0
   12a58:	5b850513          	addi	a0,a0,1464 # 1300c <test_5_data>
   12a5c:	00052683          	lw	a3,0(a0)
   12a60:	ffe00513          	li	a0,-2
   12a64:	d0157053          	fcvt.s.wu	ft0,a0
   12a68:	00101073          	fsflags	zero
   12a6c:	e0000553          	fmv.x.w	a0,ft0
   12a70:	00d51463          	bne	a0,a3,12a78 <fail>
   12a74:	00301a63          	bne	zero,gp,12a88 <pass>

00012a78 <fail>:
   12a78:	00119513          	slli	a0,gp,0x1
   12a7c:	00050063          	beqz	a0,12a7c <fail+0x4>
   12a80:	00156513          	ori	a0,a0,1
   12a84:	00000073          	ecall

00012a88 <pass>:
   12a88:	00100513          	li	a0,1
   12a8c:	00000073          	ecall
   12a90:	c0001073          	unimp
