
rv32ui-p-andi:     file format elf32-littleriscv


Disassembly of section .text.init:

00010000 <_start>:
   10000:	0480006f          	j	10048 <reset_vector>

00010004 <trap_vector>:
   10004:	34202f73          	csrr	t5,mcause
   10008:	00800f93          	li	t6,8
   1000c:	03ff0863          	beq	t5,t6,1003c <write_tohost>
   10010:	00900f93          	li	t6,9
   10014:	03ff0463          	beq	t5,t6,1003c <write_tohost>
   10018:	00b00f93          	li	t6,11
   1001c:	03ff0063          	beq	t5,t6,1003c <write_tohost>
   10020:	00000f13          	li	t5,0
   10024:	000f0463          	beqz	t5,1002c <trap_vector+0x28>
   10028:	000f0067          	jr	t5
   1002c:	34202f73          	csrr	t5,mcause
   10030:	000f5463          	bgez	t5,10038 <handle_exception>
   10034:	0040006f          	j	10038 <handle_exception>

00010038 <handle_exception>:
   10038:	5391e193          	ori	gp,gp,1337

0001003c <write_tohost>:
   1003c:	00001f17          	auipc	t5,0x1
   10040:	fc3f2223          	sw	gp,-60(t5) # 11000 <tohost>
   10044:	ff9ff06f          	j	1003c <write_tohost>

00010048 <reset_vector>:
   10048:	00000093          	li	ra,0
   1004c:	00000113          	li	sp,0
   10050:	00000193          	li	gp,0
   10054:	00000213          	li	tp,0
   10058:	00000293          	li	t0,0
   1005c:	00000313          	li	t1,0
   10060:	00000393          	li	t2,0
   10064:	00000413          	li	s0,0
   10068:	00000493          	li	s1,0
   1006c:	00000513          	li	a0,0
   10070:	00000593          	li	a1,0
   10074:	00000613          	li	a2,0
   10078:	00000693          	li	a3,0
   1007c:	00000713          	li	a4,0
   10080:	00000793          	li	a5,0
   10084:	00000813          	li	a6,0
   10088:	00000893          	li	a7,0
   1008c:	00000913          	li	s2,0
   10090:	00000993          	li	s3,0
   10094:	00000a13          	li	s4,0
   10098:	00000a93          	li	s5,0
   1009c:	00000b13          	li	s6,0
   100a0:	00000b93          	li	s7,0
   100a4:	00000c13          	li	s8,0
   100a8:	00000c93          	li	s9,0
   100ac:	00000d13          	li	s10,0
   100b0:	00000d93          	li	s11,0
   100b4:	00000e13          	li	t3,0
   100b8:	00000e93          	li	t4,0
   100bc:	00000f13          	li	t5,0
   100c0:	00000f93          	li	t6,0
   100c4:	f1402573          	csrr	a0,mhartid
   100c8:	00051063          	bnez	a0,100c8 <reset_vector+0x80>
   100cc:	00000297          	auipc	t0,0x0
   100d0:	01028293          	addi	t0,t0,16 # 100dc <reset_vector+0x94>
   100d4:	30529073          	csrw	mtvec,t0
   100d8:	18005073          	csrwi	satp,0
   100dc:	00000297          	auipc	t0,0x0
   100e0:	02028293          	addi	t0,t0,32 # 100fc <reset_vector+0xb4>
   100e4:	30529073          	csrw	mtvec,t0
   100e8:	800002b7          	lui	t0,0x80000
   100ec:	fff28293          	addi	t0,t0,-1 # 7fffffff <_end+0x7ffedfff>
   100f0:	3b029073          	csrw	pmpaddr0,t0
   100f4:	01f00293          	li	t0,31
   100f8:	3a029073          	csrw	pmpcfg0,t0
   100fc:	00000297          	auipc	t0,0x0
   10100:	01828293          	addi	t0,t0,24 # 10114 <reset_vector+0xcc>
   10104:	30529073          	csrw	mtvec,t0
   10108:	30205073          	csrwi	medeleg,0
   1010c:	30305073          	csrwi	mideleg,0
   10110:	30405073          	csrwi	mie,0
   10114:	00000193          	li	gp,0
   10118:	00000297          	auipc	t0,0x0
   1011c:	eec28293          	addi	t0,t0,-276 # 10004 <trap_vector>
   10120:	30529073          	csrw	mtvec,t0
   10124:	00100513          	li	a0,1
   10128:	01f51513          	slli	a0,a0,0x1f
   1012c:	00054c63          	bltz	a0,10144 <reset_vector+0xfc>
   10130:	0ff0000f          	fence
   10134:	00100193          	li	gp,1
   10138:	05d00893          	li	a7,93
   1013c:	00000513          	li	a0,0
   10140:	00000073          	ecall
   10144:	00000293          	li	t0,0
   10148:	00028a63          	beqz	t0,1015c <reset_vector+0x114>
   1014c:	10529073          	csrw	stvec,t0
   10150:	0000b2b7          	lui	t0,0xb
   10154:	10928293          	addi	t0,t0,265 # b109 <_start-0x4ef7>
   10158:	30229073          	csrw	medeleg,t0
   1015c:	30005073          	csrwi	mstatus,0
   10160:	00000297          	auipc	t0,0x0
   10164:	01428293          	addi	t0,t0,20 # 10174 <test_2>
   10168:	34129073          	csrw	mepc,t0
   1016c:	f1402573          	csrr	a0,mhartid
   10170:	30200073          	mret

00010174 <test_2>:
   10174:	ff0100b7          	lui	ra,0xff010
   10178:	f0008093          	addi	ra,ra,-256 # ff00ff00 <_end+0xfeffdf00>
   1017c:	f0f0f713          	andi	a4,ra,-241
   10180:	ff0103b7          	lui	t2,0xff010
   10184:	f0038393          	addi	t2,t2,-256 # ff00ff00 <_end+0xfeffdf00>
   10188:	00200193          	li	gp,2
   1018c:	1a771463          	bne	a4,t2,10334 <fail>

00010190 <test_3>:
   10190:	0ff010b7          	lui	ra,0xff01
   10194:	ff008093          	addi	ra,ra,-16 # ff00ff0 <_end+0xfeeeff0>
   10198:	0f00f713          	andi	a4,ra,240
   1019c:	0f000393          	li	t2,240
   101a0:	00300193          	li	gp,3
   101a4:	18771863          	bne	a4,t2,10334 <fail>

000101a8 <test_4>:
   101a8:	00ff00b7          	lui	ra,0xff0
   101ac:	0ff08093          	addi	ra,ra,255 # ff00ff <_end+0xfde0ff>
   101b0:	70f0f713          	andi	a4,ra,1807
   101b4:	00f00393          	li	t2,15
   101b8:	00400193          	li	gp,4
   101bc:	16771c63          	bne	a4,t2,10334 <fail>

000101c0 <test_5>:
   101c0:	f00ff0b7          	lui	ra,0xf00ff
   101c4:	00f08093          	addi	ra,ra,15 # f00ff00f <_end+0xf00ed00f>
   101c8:	0f00f713          	andi	a4,ra,240
   101cc:	00000393          	li	t2,0
   101d0:	00500193          	li	gp,5
   101d4:	16771063          	bne	a4,t2,10334 <fail>

000101d8 <test_6>:
   101d8:	ff0100b7          	lui	ra,0xff010
   101dc:	f0008093          	addi	ra,ra,-256 # ff00ff00 <_end+0xfeffdf00>
   101e0:	0f00f093          	andi	ra,ra,240
   101e4:	00000393          	li	t2,0
   101e8:	00600193          	li	gp,6
   101ec:	14709463          	bne	ra,t2,10334 <fail>

000101f0 <test_7>:
   101f0:	00000213          	li	tp,0
   101f4:	0ff010b7          	lui	ra,0xff01
   101f8:	ff008093          	addi	ra,ra,-16 # ff00ff0 <_end+0xfeeeff0>
   101fc:	70f0f713          	andi	a4,ra,1807
   10200:	00070313          	mv	t1,a4
   10204:	00120213          	addi	tp,tp,1 # 1 <_start-0xffff>
   10208:	00200293          	li	t0,2
   1020c:	fe5214e3          	bne	tp,t0,101f4 <test_7+0x4>
   10210:	70000393          	li	t2,1792
   10214:	00700193          	li	gp,7
   10218:	10731e63          	bne	t1,t2,10334 <fail>

0001021c <test_8>:
   1021c:	00000213          	li	tp,0
   10220:	00ff00b7          	lui	ra,0xff0
   10224:	0ff08093          	addi	ra,ra,255 # ff00ff <_end+0xfde0ff>
   10228:	0f00f713          	andi	a4,ra,240
   1022c:	00000013          	nop
   10230:	00070313          	mv	t1,a4
   10234:	00120213          	addi	tp,tp,1 # 1 <_start-0xffff>
   10238:	00200293          	li	t0,2
   1023c:	fe5212e3          	bne	tp,t0,10220 <test_8+0x4>
   10240:	0f000393          	li	t2,240
   10244:	00800193          	li	gp,8
   10248:	0e731663          	bne	t1,t2,10334 <fail>

0001024c <test_9>:
   1024c:	00000213          	li	tp,0
   10250:	f00ff0b7          	lui	ra,0xf00ff
   10254:	00f08093          	addi	ra,ra,15 # f00ff00f <_end+0xf00ed00f>
   10258:	f0f0f713          	andi	a4,ra,-241
   1025c:	00000013          	nop
   10260:	00000013          	nop
   10264:	00070313          	mv	t1,a4
   10268:	00120213          	addi	tp,tp,1 # 1 <_start-0xffff>
   1026c:	00200293          	li	t0,2
   10270:	fe5210e3          	bne	tp,t0,10250 <test_9+0x4>
   10274:	f00ff3b7          	lui	t2,0xf00ff
   10278:	00f38393          	addi	t2,t2,15 # f00ff00f <_end+0xf00ed00f>
   1027c:	00900193          	li	gp,9
   10280:	0a731a63          	bne	t1,t2,10334 <fail>

00010284 <test_10>:
   10284:	00000213          	li	tp,0
   10288:	0ff010b7          	lui	ra,0xff01
   1028c:	ff008093          	addi	ra,ra,-16 # ff00ff0 <_end+0xfeeeff0>
   10290:	70f0f713          	andi	a4,ra,1807
   10294:	00120213          	addi	tp,tp,1 # 1 <_start-0xffff>
   10298:	00200293          	li	t0,2
   1029c:	fe5216e3          	bne	tp,t0,10288 <test_10+0x4>
   102a0:	70000393          	li	t2,1792
   102a4:	00a00193          	li	gp,10
   102a8:	08771663          	bne	a4,t2,10334 <fail>

000102ac <test_11>:
   102ac:	00000213          	li	tp,0
   102b0:	00ff00b7          	lui	ra,0xff0
   102b4:	0ff08093          	addi	ra,ra,255 # ff00ff <_end+0xfde0ff>
   102b8:	00000013          	nop
   102bc:	0f00f713          	andi	a4,ra,240
   102c0:	00120213          	addi	tp,tp,1 # 1 <_start-0xffff>
   102c4:	00200293          	li	t0,2
   102c8:	fe5214e3          	bne	tp,t0,102b0 <test_11+0x4>
   102cc:	0f000393          	li	t2,240
   102d0:	00b00193          	li	gp,11
   102d4:	06771063          	bne	a4,t2,10334 <fail>

000102d8 <test_12>:
   102d8:	00000213          	li	tp,0
   102dc:	f00ff0b7          	lui	ra,0xf00ff
   102e0:	00f08093          	addi	ra,ra,15 # f00ff00f <_end+0xf00ed00f>
   102e4:	00000013          	nop
   102e8:	00000013          	nop
   102ec:	70f0f713          	andi	a4,ra,1807
   102f0:	00120213          	addi	tp,tp,1 # 1 <_start-0xffff>
   102f4:	00200293          	li	t0,2
   102f8:	fe5212e3          	bne	tp,t0,102dc <test_12+0x4>
   102fc:	00f00393          	li	t2,15
   10300:	00c00193          	li	gp,12
   10304:	02771863          	bne	a4,t2,10334 <fail>

00010308 <test_13>:
   10308:	0f007093          	andi	ra,zero,240
   1030c:	00000393          	li	t2,0
   10310:	00d00193          	li	gp,13
   10314:	02709063          	bne	ra,t2,10334 <fail>

00010318 <test_14>:
   10318:	00ff00b7          	lui	ra,0xff0
   1031c:	0ff08093          	addi	ra,ra,255 # ff00ff <_end+0xfde0ff>
   10320:	70f0f013          	andi	zero,ra,1807
   10324:	00000393          	li	t2,0
   10328:	00e00193          	li	gp,14
   1032c:	00701463          	bne	zero,t2,10334 <fail>
   10330:	02301063          	bne	zero,gp,10350 <pass>

00010334 <fail>:
   10334:	0ff0000f          	fence
   10338:	00018063          	beqz	gp,10338 <fail+0x4>
   1033c:	00119193          	slli	gp,gp,0x1
   10340:	0011e193          	ori	gp,gp,1
   10344:	05d00893          	li	a7,93
   10348:	00018513          	mv	a0,gp
   1034c:	00000073          	ecall

00010350 <pass>:
   10350:	0ff0000f          	fence
   10354:	00100193          	li	gp,1
   10358:	05d00893          	li	a7,93
   1035c:	00000513          	li	a0,0
   10360:	00000073          	ecall
   10364:	c0001073          	unimp
   10368:	0000                	unimp
   1036a:	0000                	unimp
   1036c:	0000                	unimp
   1036e:	0000                	unimp
   10370:	0000                	unimp
   10372:	0000                	unimp
   10374:	0000                	unimp
   10376:	0000                	unimp
   10378:	0000                	unimp
   1037a:	0000                	unimp
