
rv32mi-p-csr:     file format elf32-littleriscv


Disassembly of section .text.init:

00010000 <_start>:
   10000:	04c0006f          	j	1004c <reset_vector>

00010004 <trap_vector>:
   10004:	34202f73          	csrr	t5,mcause
   10008:	00800f93          	li	t6,8
   1000c:	03ff0a63          	beq	t5,t6,10040 <write_tohost>
   10010:	00900f93          	li	t6,9
   10014:	03ff0663          	beq	t5,t6,10040 <write_tohost>
   10018:	00b00f93          	li	t6,11
   1001c:	03ff0263          	beq	t5,t6,10040 <write_tohost>
   10020:	00000f17          	auipc	t5,0x0
   10024:	354f0f13          	addi	t5,t5,852 # 10374 <mtvec_handler>
   10028:	000f0463          	beqz	t5,10030 <trap_vector+0x2c>
   1002c:	000f0067          	jr	t5
   10030:	34202f73          	csrr	t5,mcause
   10034:	000f5463          	bgez	t5,1003c <handle_exception>
   10038:	0040006f          	j	1003c <handle_exception>

0001003c <handle_exception>:
   1003c:	5391e193          	ori	gp,gp,1337

00010040 <write_tohost>:
   10040:	00001f17          	auipc	t5,0x1
   10044:	fc3f2023          	sw	gp,-64(t5) # 11000 <tohost>
   10048:	ff9ff06f          	j	10040 <write_tohost>

0001004c <reset_vector>:
   1004c:	00000093          	li	ra,0
   10050:	00000113          	li	sp,0
   10054:	00000193          	li	gp,0
   10058:	00000213          	li	tp,0
   1005c:	00000293          	li	t0,0
   10060:	00000313          	li	t1,0
   10064:	00000393          	li	t2,0
   10068:	00000413          	li	s0,0
   1006c:	00000493          	li	s1,0
   10070:	00000513          	li	a0,0
   10074:	00000593          	li	a1,0
   10078:	00000613          	li	a2,0
   1007c:	00000693          	li	a3,0
   10080:	00000713          	li	a4,0
   10084:	00000793          	li	a5,0
   10088:	00000813          	li	a6,0
   1008c:	00000893          	li	a7,0
   10090:	00000913          	li	s2,0
   10094:	00000993          	li	s3,0
   10098:	00000a13          	li	s4,0
   1009c:	00000a93          	li	s5,0
   100a0:	00000b13          	li	s6,0
   100a4:	00000b93          	li	s7,0
   100a8:	00000c13          	li	s8,0
   100ac:	00000c93          	li	s9,0
   100b0:	00000d13          	li	s10,0
   100b4:	00000d93          	li	s11,0
   100b8:	00000e13          	li	t3,0
   100bc:	00000e93          	li	t4,0
   100c0:	00000f13          	li	t5,0
   100c4:	00000f93          	li	t6,0
   100c8:	f1402573          	csrr	a0,mhartid
   100cc:	00051063          	bnez	a0,100cc <reset_vector+0x80>
   100d0:	00000297          	auipc	t0,0x0
   100d4:	01028293          	addi	t0,t0,16 # 100e0 <reset_vector+0x94>
   100d8:	30529073          	csrw	mtvec,t0
   100dc:	18005073          	csrwi	satp,0
   100e0:	00000297          	auipc	t0,0x0
   100e4:	02028293          	addi	t0,t0,32 # 10100 <reset_vector+0xb4>
   100e8:	30529073          	csrw	mtvec,t0
   100ec:	800002b7          	lui	t0,0x80000
   100f0:	fff28293          	addi	t0,t0,-1 # 7fffffff <_end+0x7ffedfef>
   100f4:	3b029073          	csrw	pmpaddr0,t0
   100f8:	01f00293          	li	t0,31
   100fc:	3a029073          	csrw	pmpcfg0,t0
   10100:	00000297          	auipc	t0,0x0
   10104:	01828293          	addi	t0,t0,24 # 10118 <reset_vector+0xcc>
   10108:	30529073          	csrw	mtvec,t0
   1010c:	30205073          	csrwi	medeleg,0
   10110:	30305073          	csrwi	mideleg,0
   10114:	30405073          	csrwi	mie,0
   10118:	00000193          	li	gp,0
   1011c:	00000297          	auipc	t0,0x0
   10120:	ee828293          	addi	t0,t0,-280 # 10004 <trap_vector>
   10124:	30529073          	csrw	mtvec,t0
   10128:	00100513          	li	a0,1
   1012c:	01f51513          	slli	a0,a0,0x1f
   10130:	00054c63          	bltz	a0,10148 <reset_vector+0xfc>
   10134:	0ff0000f          	fence
   10138:	00100193          	li	gp,1
   1013c:	05d00893          	li	a7,93
   10140:	00000513          	li	a0,0
   10144:	00000073          	ecall
   10148:	00000293          	li	t0,0
   1014c:	00028a63          	beqz	t0,10160 <reset_vector+0x114>
   10150:	10529073          	csrw	stvec,t0
   10154:	0000b2b7          	lui	t0,0xb
   10158:	10928293          	addi	t0,t0,265 # b109 <_start-0x4ef7>
   1015c:	30229073          	csrw	medeleg,t0
   10160:	30005073          	csrwi	mstatus,0
   10164:	00002537          	lui	a0,0x2
   10168:	80050513          	addi	a0,a0,-2048 # 1800 <_start-0xe800>
   1016c:	30052073          	csrs	mstatus,a0
   10170:	00000297          	auipc	t0,0x0
   10174:	01428293          	addi	t0,t0,20 # 10184 <test_20>
   10178:	34129073          	csrw	mepc,t0
   1017c:	f1402573          	csrr	a0,mhartid
   10180:	30200073          	mret

00010184 <test_20>:
   10184:	34001073          	csrw	mscratch,zero
   10188:	34002573          	csrr	a0,mscratch
   1018c:	00000393          	li	t2,0
   10190:	01400193          	li	gp,20
   10194:	1a751863          	bne	a0,t2,10344 <fail>

00010198 <test_21>:
   10198:	34005573          	csrrwi	a0,mscratch,0
   1019c:	3407d573          	csrrwi	a0,mscratch,15
   101a0:	00000393          	li	t2,0
   101a4:	01500193          	li	gp,21
   101a8:	18751e63          	bne	a0,t2,10344 <fail>
   101ac:	3401d073          	csrwi	mscratch,3

000101b0 <test_2>:
   101b0:	34002573          	csrr	a0,mscratch
   101b4:	00300393          	li	t2,3
   101b8:	00200193          	li	gp,2
   101bc:	18751463          	bne	a0,t2,10344 <fail>

000101c0 <test_3>:
   101c0:	3400f5f3          	csrrci	a1,mscratch,1
   101c4:	00300393          	li	t2,3
   101c8:	00300193          	li	gp,3
   101cc:	16759c63          	bne	a1,t2,10344 <fail>

000101d0 <test_4>:
   101d0:	34026673          	csrrsi	a2,mscratch,4
   101d4:	00200393          	li	t2,2
   101d8:	00400193          	li	gp,4
   101dc:	16761463          	bne	a2,t2,10344 <fail>

000101e0 <test_5>:
   101e0:	340156f3          	csrrwi	a3,mscratch,2
   101e4:	00600393          	li	t2,6
   101e8:	00500193          	li	gp,5
   101ec:	14769c63          	bne	a3,t2,10344 <fail>

000101f0 <test_6>:
   101f0:	0bad2537          	lui	a0,0xbad2
   101f4:	dea50513          	addi	a0,a0,-534 # bad1dea <_end+0xbabfdda>
   101f8:	340515f3          	csrrw	a1,mscratch,a0
   101fc:	00200393          	li	t2,2
   10200:	00600193          	li	gp,6
   10204:	14759063          	bne	a1,t2,10344 <fail>

00010208 <test_7>:
   10208:	00002537          	lui	a0,0x2
   1020c:	dea50513          	addi	a0,a0,-534 # 1dea <_start-0xe216>
   10210:	340535f3          	csrrc	a1,mscratch,a0
   10214:	0bad23b7          	lui	t2,0xbad2
   10218:	dea38393          	addi	t2,t2,-534 # bad1dea <_end+0xbabfdda>
   1021c:	00700193          	li	gp,7
   10220:	12759263          	bne	a1,t2,10344 <fail>

00010224 <test_8>:
   10224:	0000c537          	lui	a0,0xc
   10228:	eef50513          	addi	a0,a0,-273 # beef <_start-0x4111>
   1022c:	340525f3          	csrrs	a1,mscratch,a0
   10230:	0bad03b7          	lui	t2,0xbad0
   10234:	00800193          	li	gp,8
   10238:	10759663          	bne	a1,t2,10344 <fail>

0001023c <test_9>:
   1023c:	0bad2537          	lui	a0,0xbad2
   10240:	dea50513          	addi	a0,a0,-534 # bad1dea <_end+0xbabfdda>
   10244:	34051573          	csrrw	a0,mscratch,a0
   10248:	0badc3b7          	lui	t2,0xbadc
   1024c:	eef38393          	addi	t2,t2,-273 # badbeef <_end+0xbac9edf>
   10250:	00900193          	li	gp,9
   10254:	0e751863          	bne	a0,t2,10344 <fail>

00010258 <test_10>:
   10258:	00002537          	lui	a0,0x2
   1025c:	dea50513          	addi	a0,a0,-534 # 1dea <_start-0xe216>
   10260:	34053573          	csrrc	a0,mscratch,a0
   10264:	0bad23b7          	lui	t2,0xbad2
   10268:	dea38393          	addi	t2,t2,-534 # bad1dea <_end+0xbabfdda>
   1026c:	00a00193          	li	gp,10
   10270:	0c751a63          	bne	a0,t2,10344 <fail>

00010274 <test_11>:
   10274:	0000c537          	lui	a0,0xc
   10278:	eef50513          	addi	a0,a0,-273 # beef <_start-0x4111>
   1027c:	34052573          	csrrs	a0,mscratch,a0
   10280:	0bad03b7          	lui	t2,0xbad0
   10284:	00b00193          	li	gp,11
   10288:	0a751e63          	bne	a0,t2,10344 <fail>

0001028c <test_12>:
   1028c:	34002573          	csrr	a0,mscratch
   10290:	0badc3b7          	lui	t2,0xbadc
   10294:	eef38393          	addi	t2,t2,-273 # badbeef <_end+0xbac9edf>
   10298:	00c00193          	li	gp,12
   1029c:	0a751463          	bne	a0,t2,10344 <fail>
   102a0:	30102573          	csrr	a0,misa
   102a4:	02057513          	andi	a0,a0,32
   102a8:	02050863          	beqz	a0,102d8 <test_13+0x14>
   102ac:	000065b7          	lui	a1,0x6
   102b0:	3005a073          	csrs	mstatus,a1
   102b4:	f0000053          	fmv.w.x	ft0,zero
   102b8:	3005b073          	csrc	mstatus,a1
   102bc:	00002597          	auipc	a1,0x2
   102c0:	d4458593          	addi	a1,a1,-700 # 12000 <begin_signature>

000102c4 <test_13>:
   102c4:	0005a027          	fsw	ft0,0(a1)
   102c8:	0005a503          	lw	a0,0(a1)
   102cc:	00100393          	li	t2,1
   102d0:	00d00193          	li	gp,13
   102d4:	06751863          	bne	a0,t2,10344 <fail>
   102d8:	30102573          	csrr	a0,misa
   102dc:	01455513          	srli	a0,a0,0x14
   102e0:	00157513          	andi	a0,a0,1
   102e4:	04050463          	beqz	a0,1032c <finish>
   102e8:	000022b7          	lui	t0,0x2
   102ec:	80028293          	addi	t0,t0,-2048 # 1800 <_start-0xe800>
   102f0:	3002b073          	csrc	mstatus,t0
   102f4:	00000297          	auipc	t0,0x0
   102f8:	01028293          	addi	t0,t0,16 # 10304 <test_14>
   102fc:	34129073          	csrw	mepc,t0
   10300:	30200073          	mret

00010304 <test_14>:
   10304:	0ff00513          	li	a0,255
   10308:	c0001573          	csrrw	a0,cycle,zero
   1030c:	0ff00393          	li	t2,255
   10310:	00e00193          	li	gp,14
   10314:	02751863          	bne	a0,t2,10344 <fail>

00010318 <test_15>:
   10318:	0ff00513          	li	a0,255
   1031c:	30002573          	csrr	a0,mstatus
   10320:	0ff00393          	li	t2,255
   10324:	00f00193          	li	gp,15
   10328:	00751e63          	bne	a0,t2,10344 <fail>

0001032c <finish>:
   1032c:	0ff0000f          	fence
   10330:	00100193          	li	gp,1
   10334:	05d00893          	li	a7,93
   10338:	00000513          	li	a0,0
   1033c:	00000073          	ecall
   10340:	02301063          	bne	zero,gp,10360 <pass>

00010344 <fail>:
   10344:	0ff0000f          	fence
   10348:	00018063          	beqz	gp,10348 <fail+0x4>
   1034c:	00119193          	slli	gp,gp,0x1
   10350:	0011e193          	ori	gp,gp,1
   10354:	05d00893          	li	a7,93
   10358:	00018513          	mv	a0,gp
   1035c:	00000073          	ecall

00010360 <pass>:
   10360:	0ff0000f          	fence
   10364:	00100193          	li	gp,1
   10368:	05d00893          	li	a7,93
   1036c:	00000513          	li	a0,0
   10370:	00000073          	ecall

00010374 <mtvec_handler>:
   10374:	00c00293          	li	t0,12
   10378:	0051e663          	bltu	gp,t0,10384 <mtvec_handler+0x10>
   1037c:	00e00293          	li	t0,14
   10380:	0232f263          	bgeu	t0,gp,103a4 <privileged>
   10384:	342022f3          	csrr	t0,mcause
   10388:	00800313          	li	t1,8
   1038c:	fa629ce3          	bne	t0,t1,10344 <fail>
   10390:	0ff0000f          	fence
   10394:	00100193          	li	gp,1
   10398:	05d00893          	li	a7,93
   1039c:	00000513          	li	a0,0
   103a0:	00000073          	ecall

000103a4 <privileged>:
   103a4:	342022f3          	csrr	t0,mcause
   103a8:	00200313          	li	t1,2
   103ac:	f8629ce3          	bne	t0,t1,10344 <fail>
   103b0:	341022f3          	csrr	t0,mepc
   103b4:	00428293          	addi	t0,t0,4
   103b8:	34129073          	csrw	mepc,t0
   103bc:	30200073          	mret
   103c0:	c0001073          	unimp
   103c4:	0000                	unimp
   103c6:	0000                	unimp
   103c8:	0000                	unimp
   103ca:	0000                	unimp
   103cc:	0000                	unimp
   103ce:	0000                	unimp
   103d0:	0000                	unimp
   103d2:	0000                	unimp
   103d4:	0000                	unimp
   103d6:	0000                	unimp
   103d8:	0000                	unimp
   103da:	0000                	unimp
   103dc:	0000                	unimp
   103de:	0000                	unimp
   103e0:	0000                	unimp
   103e2:	0000                	unimp
   103e4:	0000                	unimp
   103e6:	0000                	unimp
   103e8:	0000                	unimp
   103ea:	0000                	unimp
   103ec:	0000                	unimp
   103ee:	0000                	unimp
   103f0:	0000                	unimp
   103f2:	0000                	unimp
   103f4:	0000                	unimp
   103f6:	0000                	unimp
   103f8:	0000                	unimp
   103fa:	0000                	unimp
   103fc:	0000                	unimp
   103fe:	0000                	unimp
