
rv32ui-p-xor:     file format elf32-littleriscv


Disassembly of section .text.init:

00010000 <_start>:
   10000:	0480006f          	j	10048 <reset_vector>

00010004 <trap_vector>:
   10004:	34202f73          	csrr	t5,mcause
   10008:	00800f93          	li	t6,8
   1000c:	03ff0863          	beq	t5,t6,1003c <write_tohost>
   10010:	00900f93          	li	t6,9
   10014:	03ff0463          	beq	t5,t6,1003c <write_tohost>
   10018:	00b00f93          	li	t6,11
   1001c:	03ff0063          	beq	t5,t6,1003c <write_tohost>
   10020:	00000f13          	li	t5,0
   10024:	000f0463          	beqz	t5,1002c <trap_vector+0x28>
   10028:	000f0067          	jr	t5
   1002c:	34202f73          	csrr	t5,mcause
   10030:	000f5463          	bgez	t5,10038 <handle_exception>
   10034:	0040006f          	j	10038 <handle_exception>

00010038 <handle_exception>:
   10038:	5391e193          	ori	gp,gp,1337

0001003c <write_tohost>:
   1003c:	00001f17          	auipc	t5,0x1
   10040:	fc3f2223          	sw	gp,-60(t5) # 11000 <tohost>
   10044:	ff9ff06f          	j	1003c <write_tohost>

00010048 <reset_vector>:
   10048:	00000093          	li	ra,0
   1004c:	00000113          	li	sp,0
   10050:	00000193          	li	gp,0
   10054:	00000213          	li	tp,0
   10058:	00000293          	li	t0,0
   1005c:	00000313          	li	t1,0
   10060:	00000393          	li	t2,0
   10064:	00000413          	li	s0,0
   10068:	00000493          	li	s1,0
   1006c:	00000513          	li	a0,0
   10070:	00000593          	li	a1,0
   10074:	00000613          	li	a2,0
   10078:	00000693          	li	a3,0
   1007c:	00000713          	li	a4,0
   10080:	00000793          	li	a5,0
   10084:	00000813          	li	a6,0
   10088:	00000893          	li	a7,0
   1008c:	00000913          	li	s2,0
   10090:	00000993          	li	s3,0
   10094:	00000a13          	li	s4,0
   10098:	00000a93          	li	s5,0
   1009c:	00000b13          	li	s6,0
   100a0:	00000b93          	li	s7,0
   100a4:	00000c13          	li	s8,0
   100a8:	00000c93          	li	s9,0
   100ac:	00000d13          	li	s10,0
   100b0:	00000d93          	li	s11,0
   100b4:	00000e13          	li	t3,0
   100b8:	00000e93          	li	t4,0
   100bc:	00000f13          	li	t5,0
   100c0:	00000f93          	li	t6,0
   100c4:	f1402573          	csrr	a0,mhartid
   100c8:	00051063          	bnez	a0,100c8 <reset_vector+0x80>
   100cc:	00000297          	auipc	t0,0x0
   100d0:	01028293          	addi	t0,t0,16 # 100dc <reset_vector+0x94>
   100d4:	30529073          	csrw	mtvec,t0
   100d8:	18005073          	csrwi	satp,0
   100dc:	00000297          	auipc	t0,0x0
   100e0:	02028293          	addi	t0,t0,32 # 100fc <reset_vector+0xb4>
   100e4:	30529073          	csrw	mtvec,t0
   100e8:	800002b7          	lui	t0,0x80000
   100ec:	fff28293          	addi	t0,t0,-1 # 7fffffff <_end+0x7ffedfff>
   100f0:	3b029073          	csrw	pmpaddr0,t0
   100f4:	01f00293          	li	t0,31
   100f8:	3a029073          	csrw	pmpcfg0,t0
   100fc:	00000297          	auipc	t0,0x0
   10100:	01828293          	addi	t0,t0,24 # 10114 <reset_vector+0xcc>
   10104:	30529073          	csrw	mtvec,t0
   10108:	30205073          	csrwi	medeleg,0
   1010c:	30305073          	csrwi	mideleg,0
   10110:	30405073          	csrwi	mie,0
   10114:	00000193          	li	gp,0
   10118:	00000297          	auipc	t0,0x0
   1011c:	eec28293          	addi	t0,t0,-276 # 10004 <trap_vector>
   10120:	30529073          	csrw	mtvec,t0
   10124:	00100513          	li	a0,1
   10128:	01f51513          	slli	a0,a0,0x1f
   1012c:	00054c63          	bltz	a0,10144 <reset_vector+0xfc>
   10130:	0ff0000f          	fence
   10134:	00100193          	li	gp,1
   10138:	05d00893          	li	a7,93
   1013c:	00000513          	li	a0,0
   10140:	00000073          	ecall
   10144:	00000293          	li	t0,0
   10148:	00028a63          	beqz	t0,1015c <reset_vector+0x114>
   1014c:	10529073          	csrw	stvec,t0
   10150:	0000b2b7          	lui	t0,0xb
   10154:	10928293          	addi	t0,t0,265 # b109 <_start-0x4ef7>
   10158:	30229073          	csrw	medeleg,t0
   1015c:	30005073          	csrwi	mstatus,0
   10160:	00000297          	auipc	t0,0x0
   10164:	01428293          	addi	t0,t0,20 # 10174 <test_2>
   10168:	34129073          	csrw	mepc,t0
   1016c:	f1402573          	csrr	a0,mhartid
   10170:	30200073          	mret

00010174 <test_2>:
   10174:	ff0100b7          	lui	ra,0xff010
   10178:	f0008093          	addi	ra,ra,-256 # ff00ff00 <_end+0xfeffdf00>
   1017c:	0f0f1137          	lui	sp,0xf0f1
   10180:	f0f10113          	addi	sp,sp,-241 # f0f0f0f <_end+0xf0def0f>
   10184:	0020c733          	xor	a4,ra,sp
   10188:	f00ff3b7          	lui	t2,0xf00ff
   1018c:	00f38393          	addi	t2,t2,15 # f00ff00f <_end+0xf00ed00f>
   10190:	00200193          	li	gp,2
   10194:	4a771063          	bne	a4,t2,10634 <fail>

00010198 <test_3>:
   10198:	0ff010b7          	lui	ra,0xff01
   1019c:	ff008093          	addi	ra,ra,-16 # ff00ff0 <_end+0xfeeeff0>
   101a0:	f0f0f137          	lui	sp,0xf0f0f
   101a4:	0f010113          	addi	sp,sp,240 # f0f0f0f0 <_end+0xf0efd0f0>
   101a8:	0020c733          	xor	a4,ra,sp
   101ac:	ff0103b7          	lui	t2,0xff010
   101b0:	f0038393          	addi	t2,t2,-256 # ff00ff00 <_end+0xfeffdf00>
   101b4:	00300193          	li	gp,3
   101b8:	46771e63          	bne	a4,t2,10634 <fail>

000101bc <test_4>:
   101bc:	00ff00b7          	lui	ra,0xff0
   101c0:	0ff08093          	addi	ra,ra,255 # ff00ff <_end+0xfde0ff>
   101c4:	0f0f1137          	lui	sp,0xf0f1
   101c8:	f0f10113          	addi	sp,sp,-241 # f0f0f0f <_end+0xf0def0f>
   101cc:	0020c733          	xor	a4,ra,sp
   101d0:	0ff013b7          	lui	t2,0xff01
   101d4:	ff038393          	addi	t2,t2,-16 # ff00ff0 <_end+0xfeeeff0>
   101d8:	00400193          	li	gp,4
   101dc:	44771c63          	bne	a4,t2,10634 <fail>

000101e0 <test_5>:
   101e0:	f00ff0b7          	lui	ra,0xf00ff
   101e4:	00f08093          	addi	ra,ra,15 # f00ff00f <_end+0xf00ed00f>
   101e8:	f0f0f137          	lui	sp,0xf0f0f
   101ec:	0f010113          	addi	sp,sp,240 # f0f0f0f0 <_end+0xf0efd0f0>
   101f0:	0020c733          	xor	a4,ra,sp
   101f4:	00ff03b7          	lui	t2,0xff0
   101f8:	0ff38393          	addi	t2,t2,255 # ff00ff <_end+0xfde0ff>
   101fc:	00500193          	li	gp,5
   10200:	42771a63          	bne	a4,t2,10634 <fail>

00010204 <test_6>:
   10204:	ff0100b7          	lui	ra,0xff010
   10208:	f0008093          	addi	ra,ra,-256 # ff00ff00 <_end+0xfeffdf00>
   1020c:	0f0f1137          	lui	sp,0xf0f1
   10210:	f0f10113          	addi	sp,sp,-241 # f0f0f0f <_end+0xf0def0f>
   10214:	0020c0b3          	xor	ra,ra,sp
   10218:	f00ff3b7          	lui	t2,0xf00ff
   1021c:	00f38393          	addi	t2,t2,15 # f00ff00f <_end+0xf00ed00f>
   10220:	00600193          	li	gp,6
   10224:	40709863          	bne	ra,t2,10634 <fail>

00010228 <test_7>:
   10228:	ff0100b7          	lui	ra,0xff010
   1022c:	f0008093          	addi	ra,ra,-256 # ff00ff00 <_end+0xfeffdf00>
   10230:	0f0f1137          	lui	sp,0xf0f1
   10234:	f0f10113          	addi	sp,sp,-241 # f0f0f0f <_end+0xf0def0f>
   10238:	0020c133          	xor	sp,ra,sp
   1023c:	f00ff3b7          	lui	t2,0xf00ff
   10240:	00f38393          	addi	t2,t2,15 # f00ff00f <_end+0xf00ed00f>
   10244:	00700193          	li	gp,7
   10248:	3e711663          	bne	sp,t2,10634 <fail>

0001024c <test_8>:
   1024c:	ff0100b7          	lui	ra,0xff010
   10250:	f0008093          	addi	ra,ra,-256 # ff00ff00 <_end+0xfeffdf00>
   10254:	0010c0b3          	xor	ra,ra,ra
   10258:	00000393          	li	t2,0
   1025c:	00800193          	li	gp,8
   10260:	3c709a63          	bne	ra,t2,10634 <fail>

00010264 <test_9>:
   10264:	00000213          	li	tp,0
   10268:	ff0100b7          	lui	ra,0xff010
   1026c:	f0008093          	addi	ra,ra,-256 # ff00ff00 <_end+0xfeffdf00>
   10270:	0f0f1137          	lui	sp,0xf0f1
   10274:	f0f10113          	addi	sp,sp,-241 # f0f0f0f <_end+0xf0def0f>
   10278:	0020c733          	xor	a4,ra,sp
   1027c:	00070313          	mv	t1,a4
   10280:	00120213          	addi	tp,tp,1 # 1 <_start-0xffff>
   10284:	00200293          	li	t0,2
   10288:	fe5210e3          	bne	tp,t0,10268 <test_9+0x4>
   1028c:	f00ff3b7          	lui	t2,0xf00ff
   10290:	00f38393          	addi	t2,t2,15 # f00ff00f <_end+0xf00ed00f>
   10294:	00900193          	li	gp,9
   10298:	38731e63          	bne	t1,t2,10634 <fail>

0001029c <test_10>:
   1029c:	00000213          	li	tp,0
   102a0:	0ff010b7          	lui	ra,0xff01
   102a4:	ff008093          	addi	ra,ra,-16 # ff00ff0 <_end+0xfeeeff0>
   102a8:	f0f0f137          	lui	sp,0xf0f0f
   102ac:	0f010113          	addi	sp,sp,240 # f0f0f0f0 <_end+0xf0efd0f0>
   102b0:	0020c733          	xor	a4,ra,sp
   102b4:	00000013          	nop
   102b8:	00070313          	mv	t1,a4
   102bc:	00120213          	addi	tp,tp,1 # 1 <_start-0xffff>
   102c0:	00200293          	li	t0,2
   102c4:	fc521ee3          	bne	tp,t0,102a0 <test_10+0x4>
   102c8:	ff0103b7          	lui	t2,0xff010
   102cc:	f0038393          	addi	t2,t2,-256 # ff00ff00 <_end+0xfeffdf00>
   102d0:	00a00193          	li	gp,10
   102d4:	36731063          	bne	t1,t2,10634 <fail>

000102d8 <test_11>:
   102d8:	00000213          	li	tp,0
   102dc:	00ff00b7          	lui	ra,0xff0
   102e0:	0ff08093          	addi	ra,ra,255 # ff00ff <_end+0xfde0ff>
   102e4:	0f0f1137          	lui	sp,0xf0f1
   102e8:	f0f10113          	addi	sp,sp,-241 # f0f0f0f <_end+0xf0def0f>
   102ec:	0020c733          	xor	a4,ra,sp
   102f0:	00000013          	nop
   102f4:	00000013          	nop
   102f8:	00070313          	mv	t1,a4
   102fc:	00120213          	addi	tp,tp,1 # 1 <_start-0xffff>
   10300:	00200293          	li	t0,2
   10304:	fc521ce3          	bne	tp,t0,102dc <test_11+0x4>
   10308:	0ff013b7          	lui	t2,0xff01
   1030c:	ff038393          	addi	t2,t2,-16 # ff00ff0 <_end+0xfeeeff0>
   10310:	00b00193          	li	gp,11
   10314:	32731063          	bne	t1,t2,10634 <fail>

00010318 <test_12>:
   10318:	00000213          	li	tp,0
   1031c:	ff0100b7          	lui	ra,0xff010
   10320:	f0008093          	addi	ra,ra,-256 # ff00ff00 <_end+0xfeffdf00>
   10324:	0f0f1137          	lui	sp,0xf0f1
   10328:	f0f10113          	addi	sp,sp,-241 # f0f0f0f <_end+0xf0def0f>
   1032c:	0020c733          	xor	a4,ra,sp
   10330:	00120213          	addi	tp,tp,1 # 1 <_start-0xffff>
   10334:	00200293          	li	t0,2
   10338:	fe5212e3          	bne	tp,t0,1031c <test_12+0x4>
   1033c:	f00ff3b7          	lui	t2,0xf00ff
   10340:	00f38393          	addi	t2,t2,15 # f00ff00f <_end+0xf00ed00f>
   10344:	00c00193          	li	gp,12
   10348:	2e771663          	bne	a4,t2,10634 <fail>

0001034c <test_13>:
   1034c:	00000213          	li	tp,0
   10350:	0ff010b7          	lui	ra,0xff01
   10354:	ff008093          	addi	ra,ra,-16 # ff00ff0 <_end+0xfeeeff0>
   10358:	f0f0f137          	lui	sp,0xf0f0f
   1035c:	0f010113          	addi	sp,sp,240 # f0f0f0f0 <_end+0xf0efd0f0>
   10360:	00000013          	nop
   10364:	0020c733          	xor	a4,ra,sp
   10368:	00120213          	addi	tp,tp,1 # 1 <_start-0xffff>
   1036c:	00200293          	li	t0,2
   10370:	fe5210e3          	bne	tp,t0,10350 <test_13+0x4>
   10374:	ff0103b7          	lui	t2,0xff010
   10378:	f0038393          	addi	t2,t2,-256 # ff00ff00 <_end+0xfeffdf00>
   1037c:	00d00193          	li	gp,13
   10380:	2a771a63          	bne	a4,t2,10634 <fail>

00010384 <test_14>:
   10384:	00000213          	li	tp,0
   10388:	00ff00b7          	lui	ra,0xff0
   1038c:	0ff08093          	addi	ra,ra,255 # ff00ff <_end+0xfde0ff>
   10390:	0f0f1137          	lui	sp,0xf0f1
   10394:	f0f10113          	addi	sp,sp,-241 # f0f0f0f <_end+0xf0def0f>
   10398:	00000013          	nop
   1039c:	00000013          	nop
   103a0:	0020c733          	xor	a4,ra,sp
   103a4:	00120213          	addi	tp,tp,1 # 1 <_start-0xffff>
   103a8:	00200293          	li	t0,2
   103ac:	fc521ee3          	bne	tp,t0,10388 <test_14+0x4>
   103b0:	0ff013b7          	lui	t2,0xff01
   103b4:	ff038393          	addi	t2,t2,-16 # ff00ff0 <_end+0xfeeeff0>
   103b8:	00e00193          	li	gp,14
   103bc:	26771c63          	bne	a4,t2,10634 <fail>

000103c0 <test_15>:
   103c0:	00000213          	li	tp,0
   103c4:	ff0100b7          	lui	ra,0xff010
   103c8:	f0008093          	addi	ra,ra,-256 # ff00ff00 <_end+0xfeffdf00>
   103cc:	00000013          	nop
   103d0:	0f0f1137          	lui	sp,0xf0f1
   103d4:	f0f10113          	addi	sp,sp,-241 # f0f0f0f <_end+0xf0def0f>
   103d8:	0020c733          	xor	a4,ra,sp
   103dc:	00120213          	addi	tp,tp,1 # 1 <_start-0xffff>
   103e0:	00200293          	li	t0,2
   103e4:	fe5210e3          	bne	tp,t0,103c4 <test_15+0x4>
   103e8:	f00ff3b7          	lui	t2,0xf00ff
   103ec:	00f38393          	addi	t2,t2,15 # f00ff00f <_end+0xf00ed00f>
   103f0:	00f00193          	li	gp,15
   103f4:	24771063          	bne	a4,t2,10634 <fail>

000103f8 <test_16>:
   103f8:	00000213          	li	tp,0
   103fc:	0ff010b7          	lui	ra,0xff01
   10400:	ff008093          	addi	ra,ra,-16 # ff00ff0 <_end+0xfeeeff0>
   10404:	00000013          	nop
   10408:	f0f0f137          	lui	sp,0xf0f0f
   1040c:	0f010113          	addi	sp,sp,240 # f0f0f0f0 <_end+0xf0efd0f0>
   10410:	00000013          	nop
   10414:	0020c733          	xor	a4,ra,sp
   10418:	00120213          	addi	tp,tp,1 # 1 <_start-0xffff>
   1041c:	00200293          	li	t0,2
   10420:	fc521ee3          	bne	tp,t0,103fc <test_16+0x4>
   10424:	ff0103b7          	lui	t2,0xff010
   10428:	f0038393          	addi	t2,t2,-256 # ff00ff00 <_end+0xfeffdf00>
   1042c:	01000193          	li	gp,16
   10430:	20771263          	bne	a4,t2,10634 <fail>

00010434 <test_17>:
   10434:	00000213          	li	tp,0
   10438:	00ff00b7          	lui	ra,0xff0
   1043c:	0ff08093          	addi	ra,ra,255 # ff00ff <_end+0xfde0ff>
   10440:	00000013          	nop
   10444:	00000013          	nop
   10448:	0f0f1137          	lui	sp,0xf0f1
   1044c:	f0f10113          	addi	sp,sp,-241 # f0f0f0f <_end+0xf0def0f>
   10450:	0020c733          	xor	a4,ra,sp
   10454:	00120213          	addi	tp,tp,1 # 1 <_start-0xffff>
   10458:	00200293          	li	t0,2
   1045c:	fc521ee3          	bne	tp,t0,10438 <test_17+0x4>
   10460:	0ff013b7          	lui	t2,0xff01
   10464:	ff038393          	addi	t2,t2,-16 # ff00ff0 <_end+0xfeeeff0>
   10468:	01100193          	li	gp,17
   1046c:	1c771463          	bne	a4,t2,10634 <fail>

00010470 <test_18>:
   10470:	00000213          	li	tp,0
   10474:	0f0f1137          	lui	sp,0xf0f1
   10478:	f0f10113          	addi	sp,sp,-241 # f0f0f0f <_end+0xf0def0f>
   1047c:	ff0100b7          	lui	ra,0xff010
   10480:	f0008093          	addi	ra,ra,-256 # ff00ff00 <_end+0xfeffdf00>
   10484:	0020c733          	xor	a4,ra,sp
   10488:	00120213          	addi	tp,tp,1 # 1 <_start-0xffff>
   1048c:	00200293          	li	t0,2
   10490:	fe5212e3          	bne	tp,t0,10474 <test_18+0x4>
   10494:	f00ff3b7          	lui	t2,0xf00ff
   10498:	00f38393          	addi	t2,t2,15 # f00ff00f <_end+0xf00ed00f>
   1049c:	01200193          	li	gp,18
   104a0:	18771a63          	bne	a4,t2,10634 <fail>

000104a4 <test_19>:
   104a4:	00000213          	li	tp,0
   104a8:	f0f0f137          	lui	sp,0xf0f0f
   104ac:	0f010113          	addi	sp,sp,240 # f0f0f0f0 <_end+0xf0efd0f0>
   104b0:	0ff010b7          	lui	ra,0xff01
   104b4:	ff008093          	addi	ra,ra,-16 # ff00ff0 <_end+0xfeeeff0>
   104b8:	00000013          	nop
   104bc:	0020c733          	xor	a4,ra,sp
   104c0:	00120213          	addi	tp,tp,1 # 1 <_start-0xffff>
   104c4:	00200293          	li	t0,2
   104c8:	fe5210e3          	bne	tp,t0,104a8 <test_19+0x4>
   104cc:	ff0103b7          	lui	t2,0xff010
   104d0:	f0038393          	addi	t2,t2,-256 # ff00ff00 <_end+0xfeffdf00>
   104d4:	01300193          	li	gp,19
   104d8:	14771e63          	bne	a4,t2,10634 <fail>

000104dc <test_20>:
   104dc:	00000213          	li	tp,0
   104e0:	0f0f1137          	lui	sp,0xf0f1
   104e4:	f0f10113          	addi	sp,sp,-241 # f0f0f0f <_end+0xf0def0f>
   104e8:	00ff00b7          	lui	ra,0xff0
   104ec:	0ff08093          	addi	ra,ra,255 # ff00ff <_end+0xfde0ff>
   104f0:	00000013          	nop
   104f4:	00000013          	nop
   104f8:	0020c733          	xor	a4,ra,sp
   104fc:	00120213          	addi	tp,tp,1 # 1 <_start-0xffff>
   10500:	00200293          	li	t0,2
   10504:	fc521ee3          	bne	tp,t0,104e0 <test_20+0x4>
   10508:	0ff013b7          	lui	t2,0xff01
   1050c:	ff038393          	addi	t2,t2,-16 # ff00ff0 <_end+0xfeeeff0>
   10510:	01400193          	li	gp,20
   10514:	12771063          	bne	a4,t2,10634 <fail>

00010518 <test_21>:
   10518:	00000213          	li	tp,0
   1051c:	0f0f1137          	lui	sp,0xf0f1
   10520:	f0f10113          	addi	sp,sp,-241 # f0f0f0f <_end+0xf0def0f>
   10524:	00000013          	nop
   10528:	ff0100b7          	lui	ra,0xff010
   1052c:	f0008093          	addi	ra,ra,-256 # ff00ff00 <_end+0xfeffdf00>
   10530:	0020c733          	xor	a4,ra,sp
   10534:	00120213          	addi	tp,tp,1 # 1 <_start-0xffff>
   10538:	00200293          	li	t0,2
   1053c:	fe5210e3          	bne	tp,t0,1051c <test_21+0x4>
   10540:	f00ff3b7          	lui	t2,0xf00ff
   10544:	00f38393          	addi	t2,t2,15 # f00ff00f <_end+0xf00ed00f>
   10548:	01500193          	li	gp,21
   1054c:	0e771463          	bne	a4,t2,10634 <fail>

00010550 <test_22>:
   10550:	00000213          	li	tp,0
   10554:	f0f0f137          	lui	sp,0xf0f0f
   10558:	0f010113          	addi	sp,sp,240 # f0f0f0f0 <_end+0xf0efd0f0>
   1055c:	00000013          	nop
   10560:	0ff010b7          	lui	ra,0xff01
   10564:	ff008093          	addi	ra,ra,-16 # ff00ff0 <_end+0xfeeeff0>
   10568:	00000013          	nop
   1056c:	0020c733          	xor	a4,ra,sp
   10570:	00120213          	addi	tp,tp,1 # 1 <_start-0xffff>
   10574:	00200293          	li	t0,2
   10578:	fc521ee3          	bne	tp,t0,10554 <test_22+0x4>
   1057c:	ff0103b7          	lui	t2,0xff010
   10580:	f0038393          	addi	t2,t2,-256 # ff00ff00 <_end+0xfeffdf00>
   10584:	01600193          	li	gp,22
   10588:	0a771663          	bne	a4,t2,10634 <fail>

0001058c <test_23>:
   1058c:	00000213          	li	tp,0
   10590:	0f0f1137          	lui	sp,0xf0f1
   10594:	f0f10113          	addi	sp,sp,-241 # f0f0f0f <_end+0xf0def0f>
   10598:	00000013          	nop
   1059c:	00000013          	nop
   105a0:	00ff00b7          	lui	ra,0xff0
   105a4:	0ff08093          	addi	ra,ra,255 # ff00ff <_end+0xfde0ff>
   105a8:	0020c733          	xor	a4,ra,sp
   105ac:	00120213          	addi	tp,tp,1 # 1 <_start-0xffff>
   105b0:	00200293          	li	t0,2
   105b4:	fc521ee3          	bne	tp,t0,10590 <test_23+0x4>
   105b8:	0ff013b7          	lui	t2,0xff01
   105bc:	ff038393          	addi	t2,t2,-16 # ff00ff0 <_end+0xfeeeff0>
   105c0:	01700193          	li	gp,23
   105c4:	06771863          	bne	a4,t2,10634 <fail>

000105c8 <test_24>:
   105c8:	ff0100b7          	lui	ra,0xff010
   105cc:	f0008093          	addi	ra,ra,-256 # ff00ff00 <_end+0xfeffdf00>
   105d0:	00104133          	xor	sp,zero,ra
   105d4:	ff0103b7          	lui	t2,0xff010
   105d8:	f0038393          	addi	t2,t2,-256 # ff00ff00 <_end+0xfeffdf00>
   105dc:	01800193          	li	gp,24
   105e0:	04711a63          	bne	sp,t2,10634 <fail>

000105e4 <test_25>:
   105e4:	00ff00b7          	lui	ra,0xff0
   105e8:	0ff08093          	addi	ra,ra,255 # ff00ff <_end+0xfde0ff>
   105ec:	0000c133          	xor	sp,ra,zero
   105f0:	00ff03b7          	lui	t2,0xff0
   105f4:	0ff38393          	addi	t2,t2,255 # ff00ff <_end+0xfde0ff>
   105f8:	01900193          	li	gp,25
   105fc:	02711c63          	bne	sp,t2,10634 <fail>

00010600 <test_26>:
   10600:	000040b3          	xor	ra,zero,zero
   10604:	00000393          	li	t2,0
   10608:	01a00193          	li	gp,26
   1060c:	02709463          	bne	ra,t2,10634 <fail>

00010610 <test_27>:
   10610:	111110b7          	lui	ra,0x11111
   10614:	11108093          	addi	ra,ra,273 # 11111111 <_end+0x110ff111>
   10618:	22222137          	lui	sp,0x22222
   1061c:	22210113          	addi	sp,sp,546 # 22222222 <_end+0x22210222>
   10620:	0020c033          	xor	zero,ra,sp
   10624:	00000393          	li	t2,0
   10628:	01b00193          	li	gp,27
   1062c:	00701463          	bne	zero,t2,10634 <fail>
   10630:	02301063          	bne	zero,gp,10650 <pass>

00010634 <fail>:
   10634:	0ff0000f          	fence
   10638:	00018063          	beqz	gp,10638 <fail+0x4>
   1063c:	00119193          	slli	gp,gp,0x1
   10640:	0011e193          	ori	gp,gp,1
   10644:	05d00893          	li	a7,93
   10648:	00018513          	mv	a0,gp
   1064c:	00000073          	ecall

00010650 <pass>:
   10650:	0ff0000f          	fence
   10654:	00100193          	li	gp,1
   10658:	05d00893          	li	a7,93
   1065c:	00000513          	li	a0,0
   10660:	00000073          	ecall
   10664:	c0001073          	unimp
   10668:	0000                	unimp
   1066a:	0000                	unimp
   1066c:	0000                	unimp
   1066e:	0000                	unimp
   10670:	0000                	unimp
   10672:	0000                	unimp
   10674:	0000                	unimp
   10676:	0000                	unimp
   10678:	0000                	unimp
   1067a:	0000                	unimp
