
rv32uf-p-fclass:     file format elf32-littleriscv


Disassembly of section .text.init:

00010000 <_start>:
   10000:	0480006f          	j	10048 <reset_vector>

00010004 <trap_vector>:
   10004:	34202f73          	csrr	t5,mcause
   10008:	00800f93          	li	t6,8
   1000c:	03ff0863          	beq	t5,t6,1003c <write_tohost>
   10010:	00900f93          	li	t6,9
   10014:	03ff0463          	beq	t5,t6,1003c <write_tohost>
   10018:	00b00f93          	li	t6,11
   1001c:	03ff0063          	beq	t5,t6,1003c <write_tohost>
   10020:	00000f13          	li	t5,0
   10024:	000f0463          	beqz	t5,1002c <trap_vector+0x28>
   10028:	000f0067          	jr	t5
   1002c:	34202f73          	csrr	t5,mcause
   10030:	000f5463          	bgez	t5,10038 <handle_exception>
   10034:	0040006f          	j	10038 <handle_exception>

00010038 <handle_exception>:
   10038:	5391e193          	ori	gp,gp,1337

0001003c <write_tohost>:
   1003c:	00001f17          	auipc	t5,0x1
   10040:	fc3f2223          	sw	gp,-60(t5) # 11000 <tohost>
   10044:	ff9ff06f          	j	1003c <write_tohost>

00010048 <reset_vector>:
   10048:	00000093          	li	ra,0
   1004c:	00000113          	li	sp,0
   10050:	00000193          	li	gp,0
   10054:	00000213          	li	tp,0
   10058:	00000293          	li	t0,0
   1005c:	00000313          	li	t1,0
   10060:	00000393          	li	t2,0
   10064:	00000413          	li	s0,0
   10068:	00000493          	li	s1,0
   1006c:	00000513          	li	a0,0
   10070:	00000593          	li	a1,0
   10074:	00000613          	li	a2,0
   10078:	00000693          	li	a3,0
   1007c:	00000713          	li	a4,0
   10080:	00000793          	li	a5,0
   10084:	00000813          	li	a6,0
   10088:	00000893          	li	a7,0
   1008c:	00000913          	li	s2,0
   10090:	00000993          	li	s3,0
   10094:	00000a13          	li	s4,0
   10098:	00000a93          	li	s5,0
   1009c:	00000b13          	li	s6,0
   100a0:	00000b93          	li	s7,0
   100a4:	00000c13          	li	s8,0
   100a8:	00000c93          	li	s9,0
   100ac:	00000d13          	li	s10,0
   100b0:	00000d93          	li	s11,0
   100b4:	00000e13          	li	t3,0
   100b8:	00000e93          	li	t4,0
   100bc:	00000f13          	li	t5,0
   100c0:	00000f93          	li	t6,0
   100c4:	f1402573          	csrr	a0,mhartid
   100c8:	00051063          	bnez	a0,100c8 <reset_vector+0x80>
   100cc:	00000297          	auipc	t0,0x0
   100d0:	01028293          	addi	t0,t0,16 # 100dc <reset_vector+0x94>
   100d4:	30529073          	csrw	mtvec,t0
   100d8:	18005073          	csrwi	satp,0
   100dc:	00000297          	auipc	t0,0x0
   100e0:	02028293          	addi	t0,t0,32 # 100fc <reset_vector+0xb4>
   100e4:	30529073          	csrw	mtvec,t0
   100e8:	800002b7          	lui	t0,0x80000
   100ec:	fff28293          	addi	t0,t0,-1 # 7fffffff <_end+0x7ffedfff>
   100f0:	3b029073          	csrw	pmpaddr0,t0
   100f4:	01f00293          	li	t0,31
   100f8:	3a029073          	csrw	pmpcfg0,t0
   100fc:	00000297          	auipc	t0,0x0
   10100:	01828293          	addi	t0,t0,24 # 10114 <reset_vector+0xcc>
   10104:	30529073          	csrw	mtvec,t0
   10108:	30205073          	csrwi	medeleg,0
   1010c:	30305073          	csrwi	mideleg,0
   10110:	30405073          	csrwi	mie,0
   10114:	00000193          	li	gp,0
   10118:	00000297          	auipc	t0,0x0
   1011c:	eec28293          	addi	t0,t0,-276 # 10004 <trap_vector>
   10120:	30529073          	csrw	mtvec,t0
   10124:	00100513          	li	a0,1
   10128:	01f51513          	slli	a0,a0,0x1f
   1012c:	00054c63          	bltz	a0,10144 <reset_vector+0xfc>
   10130:	0ff0000f          	fence
   10134:	00100193          	li	gp,1
   10138:	05d00893          	li	a7,93
   1013c:	00000513          	li	a0,0
   10140:	00000073          	ecall
   10144:	00000293          	li	t0,0
   10148:	00028a63          	beqz	t0,1015c <reset_vector+0x114>
   1014c:	10529073          	csrw	stvec,t0
   10150:	0000b2b7          	lui	t0,0xb
   10154:	10928293          	addi	t0,t0,265 # b109 <_start-0x4ef7>
   10158:	30229073          	csrw	medeleg,t0
   1015c:	30005073          	csrwi	mstatus,0
   10160:	00002537          	lui	a0,0x2
   10164:	30052073          	csrs	mstatus,a0
   10168:	00305073          	csrwi	fcsr,0
   1016c:	00000297          	auipc	t0,0x0
   10170:	01428293          	addi	t0,t0,20 # 10180 <test_2>
   10174:	34129073          	csrw	mepc,t0
   10178:	f1402573          	csrr	a0,mhartid
   1017c:	30200073          	mret

00010180 <test_2>:
   10180:	ff800537          	lui	a0,0xff800
   10184:	f0050553          	fmv.w.x	fa0,a0
   10188:	e0051553          	fclass.s	a0,fa0
   1018c:	00100393          	li	t2,1
   10190:	00200193          	li	gp,2
   10194:	0e751663          	bne	a0,t2,10280 <fail>

00010198 <test_3>:
   10198:	bf800537          	lui	a0,0xbf800
   1019c:	f0050553          	fmv.w.x	fa0,a0
   101a0:	e0051553          	fclass.s	a0,fa0
   101a4:	00200393          	li	t2,2
   101a8:	00300193          	li	gp,3
   101ac:	0c751a63          	bne	a0,t2,10280 <fail>

000101b0 <test_4>:
   101b0:	80800537          	lui	a0,0x80800
   101b4:	fff50513          	addi	a0,a0,-1 # 807fffff <_end+0x807edfff>
   101b8:	f0050553          	fmv.w.x	fa0,a0
   101bc:	e0051553          	fclass.s	a0,fa0
   101c0:	00400393          	li	t2,4
   101c4:	00400193          	li	gp,4
   101c8:	0a751c63          	bne	a0,t2,10280 <fail>

000101cc <test_5>:
   101cc:	80000537          	lui	a0,0x80000
   101d0:	f0050553          	fmv.w.x	fa0,a0
   101d4:	e0051553          	fclass.s	a0,fa0
   101d8:	00800393          	li	t2,8
   101dc:	00500193          	li	gp,5
   101e0:	0a751063          	bne	a0,t2,10280 <fail>

000101e4 <test_6>:
   101e4:	00000513          	li	a0,0
   101e8:	f0050553          	fmv.w.x	fa0,a0
   101ec:	e0051553          	fclass.s	a0,fa0
   101f0:	01000393          	li	t2,16
   101f4:	00600193          	li	gp,6
   101f8:	08751463          	bne	a0,t2,10280 <fail>

000101fc <test_7>:
   101fc:	00800537          	lui	a0,0x800
   10200:	fff50513          	addi	a0,a0,-1 # 7fffff <_end+0x7edfff>
   10204:	f0050553          	fmv.w.x	fa0,a0
   10208:	e0051553          	fclass.s	a0,fa0
   1020c:	02000393          	li	t2,32
   10210:	00700193          	li	gp,7
   10214:	06751663          	bne	a0,t2,10280 <fail>

00010218 <test_8>:
   10218:	3f800537          	lui	a0,0x3f800
   1021c:	f0050553          	fmv.w.x	fa0,a0
   10220:	e0051553          	fclass.s	a0,fa0
   10224:	04000393          	li	t2,64
   10228:	00800193          	li	gp,8
   1022c:	04751a63          	bne	a0,t2,10280 <fail>

00010230 <test_9>:
   10230:	7f800537          	lui	a0,0x7f800
   10234:	f0050553          	fmv.w.x	fa0,a0
   10238:	e0051553          	fclass.s	a0,fa0
   1023c:	08000393          	li	t2,128
   10240:	00900193          	li	gp,9
   10244:	02751e63          	bne	a0,t2,10280 <fail>

00010248 <test_10>:
   10248:	7f800537          	lui	a0,0x7f800
   1024c:	00150513          	addi	a0,a0,1 # 7f800001 <_end+0x7f7ee001>
   10250:	f0050553          	fmv.w.x	fa0,a0
   10254:	e0051553          	fclass.s	a0,fa0
   10258:	10000393          	li	t2,256
   1025c:	00a00193          	li	gp,10
   10260:	02751063          	bne	a0,t2,10280 <fail>

00010264 <test_11>:
   10264:	7fc00537          	lui	a0,0x7fc00
   10268:	f0050553          	fmv.w.x	fa0,a0
   1026c:	e0051553          	fclass.s	a0,fa0
   10270:	20000393          	li	t2,512
   10274:	00b00193          	li	gp,11
   10278:	00751463          	bne	a0,t2,10280 <fail>
   1027c:	02301063          	bne	zero,gp,1029c <pass>

00010280 <fail>:
   10280:	0ff0000f          	fence
   10284:	00018063          	beqz	gp,10284 <fail+0x4>
   10288:	00119193          	slli	gp,gp,0x1
   1028c:	0011e193          	ori	gp,gp,1
   10290:	05d00893          	li	a7,93
   10294:	00018513          	mv	a0,gp
   10298:	00000073          	ecall

0001029c <pass>:
   1029c:	0ff0000f          	fence
   102a0:	00100193          	li	gp,1
   102a4:	05d00893          	li	a7,93
   102a8:	00000513          	li	a0,0
   102ac:	00000073          	ecall
   102b0:	c0001073          	unimp
   102b4:	0000                	unimp
   102b6:	0000                	unimp
   102b8:	0000                	unimp
   102ba:	0000                	unimp
