
rv32ui-p-sltiu:     file format elf32-littleriscv


Disassembly of section .text.init:

00010000 <_start>:
   10000:	0480006f          	j	10048 <reset_vector>

00010004 <trap_vector>:
   10004:	34202f73          	csrr	t5,mcause
   10008:	00800f93          	li	t6,8
   1000c:	03ff0863          	beq	t5,t6,1003c <write_tohost>
   10010:	00900f93          	li	t6,9
   10014:	03ff0463          	beq	t5,t6,1003c <write_tohost>
   10018:	00b00f93          	li	t6,11
   1001c:	03ff0063          	beq	t5,t6,1003c <write_tohost>
   10020:	00000f13          	li	t5,0
   10024:	000f0463          	beqz	t5,1002c <trap_vector+0x28>
   10028:	000f0067          	jr	t5
   1002c:	34202f73          	csrr	t5,mcause
   10030:	000f5463          	bgez	t5,10038 <handle_exception>
   10034:	0040006f          	j	10038 <handle_exception>

00010038 <handle_exception>:
   10038:	5391e193          	ori	gp,gp,1337

0001003c <write_tohost>:
   1003c:	00001f17          	auipc	t5,0x1
   10040:	fc3f2223          	sw	gp,-60(t5) # 11000 <tohost>
   10044:	ff9ff06f          	j	1003c <write_tohost>

00010048 <reset_vector>:
   10048:	00000093          	li	ra,0
   1004c:	00000113          	li	sp,0
   10050:	00000193          	li	gp,0
   10054:	00000213          	li	tp,0
   10058:	00000293          	li	t0,0
   1005c:	00000313          	li	t1,0
   10060:	00000393          	li	t2,0
   10064:	00000413          	li	s0,0
   10068:	00000493          	li	s1,0
   1006c:	00000513          	li	a0,0
   10070:	00000593          	li	a1,0
   10074:	00000613          	li	a2,0
   10078:	00000693          	li	a3,0
   1007c:	00000713          	li	a4,0
   10080:	00000793          	li	a5,0
   10084:	00000813          	li	a6,0
   10088:	00000893          	li	a7,0
   1008c:	00000913          	li	s2,0
   10090:	00000993          	li	s3,0
   10094:	00000a13          	li	s4,0
   10098:	00000a93          	li	s5,0
   1009c:	00000b13          	li	s6,0
   100a0:	00000b93          	li	s7,0
   100a4:	00000c13          	li	s8,0
   100a8:	00000c93          	li	s9,0
   100ac:	00000d13          	li	s10,0
   100b0:	00000d93          	li	s11,0
   100b4:	00000e13          	li	t3,0
   100b8:	00000e93          	li	t4,0
   100bc:	00000f13          	li	t5,0
   100c0:	00000f93          	li	t6,0
   100c4:	f1402573          	csrr	a0,mhartid
   100c8:	00051063          	bnez	a0,100c8 <reset_vector+0x80>
   100cc:	00000297          	auipc	t0,0x0
   100d0:	01028293          	addi	t0,t0,16 # 100dc <reset_vector+0x94>
   100d4:	30529073          	csrw	mtvec,t0
   100d8:	18005073          	csrwi	satp,0
   100dc:	00000297          	auipc	t0,0x0
   100e0:	02028293          	addi	t0,t0,32 # 100fc <reset_vector+0xb4>
   100e4:	30529073          	csrw	mtvec,t0
   100e8:	800002b7          	lui	t0,0x80000
   100ec:	fff28293          	addi	t0,t0,-1 # 7fffffff <_end+0x7ffedfff>
   100f0:	3b029073          	csrw	pmpaddr0,t0
   100f4:	01f00293          	li	t0,31
   100f8:	3a029073          	csrw	pmpcfg0,t0
   100fc:	00000297          	auipc	t0,0x0
   10100:	01828293          	addi	t0,t0,24 # 10114 <reset_vector+0xcc>
   10104:	30529073          	csrw	mtvec,t0
   10108:	30205073          	csrwi	medeleg,0
   1010c:	30305073          	csrwi	mideleg,0
   10110:	30405073          	csrwi	mie,0
   10114:	00000193          	li	gp,0
   10118:	00000297          	auipc	t0,0x0
   1011c:	eec28293          	addi	t0,t0,-276 # 10004 <trap_vector>
   10120:	30529073          	csrw	mtvec,t0
   10124:	00100513          	li	a0,1
   10128:	01f51513          	slli	a0,a0,0x1f
   1012c:	00054c63          	bltz	a0,10144 <reset_vector+0xfc>
   10130:	0ff0000f          	fence
   10134:	00100193          	li	gp,1
   10138:	05d00893          	li	a7,93
   1013c:	00000513          	li	a0,0
   10140:	00000073          	ecall
   10144:	00000293          	li	t0,0
   10148:	00028a63          	beqz	t0,1015c <reset_vector+0x114>
   1014c:	10529073          	csrw	stvec,t0
   10150:	0000b2b7          	lui	t0,0xb
   10154:	10928293          	addi	t0,t0,265 # b109 <_start-0x4ef7>
   10158:	30229073          	csrw	medeleg,t0
   1015c:	30005073          	csrwi	mstatus,0
   10160:	00000297          	auipc	t0,0x0
   10164:	01428293          	addi	t0,t0,20 # 10174 <test_2>
   10168:	34129073          	csrw	mepc,t0
   1016c:	f1402573          	csrr	a0,mhartid
   10170:	30200073          	mret

00010174 <test_2>:
   10174:	00000093          	li	ra,0
   10178:	0000b713          	sltiu	a4,ra,0
   1017c:	00000393          	li	t2,0
   10180:	00200193          	li	gp,2
   10184:	26771263          	bne	a4,t2,103e8 <fail>

00010188 <test_3>:
   10188:	00100093          	li	ra,1
   1018c:	0010b713          	seqz	a4,ra
   10190:	00000393          	li	t2,0
   10194:	00300193          	li	gp,3
   10198:	24771863          	bne	a4,t2,103e8 <fail>

0001019c <test_4>:
   1019c:	00300093          	li	ra,3
   101a0:	0070b713          	sltiu	a4,ra,7
   101a4:	00100393          	li	t2,1
   101a8:	00400193          	li	gp,4
   101ac:	22771e63          	bne	a4,t2,103e8 <fail>

000101b0 <test_5>:
   101b0:	00700093          	li	ra,7
   101b4:	0030b713          	sltiu	a4,ra,3
   101b8:	00000393          	li	t2,0
   101bc:	00500193          	li	gp,5
   101c0:	22771463          	bne	a4,t2,103e8 <fail>

000101c4 <test_6>:
   101c4:	00000093          	li	ra,0
   101c8:	8000b713          	sltiu	a4,ra,-2048
   101cc:	00100393          	li	t2,1
   101d0:	00600193          	li	gp,6
   101d4:	20771a63          	bne	a4,t2,103e8 <fail>

000101d8 <test_7>:
   101d8:	800000b7          	lui	ra,0x80000
   101dc:	0000b713          	sltiu	a4,ra,0
   101e0:	00000393          	li	t2,0
   101e4:	00700193          	li	gp,7
   101e8:	20771063          	bne	a4,t2,103e8 <fail>

000101ec <test_8>:
   101ec:	800000b7          	lui	ra,0x80000
   101f0:	8000b713          	sltiu	a4,ra,-2048
   101f4:	00100393          	li	t2,1
   101f8:	00800193          	li	gp,8
   101fc:	1e771663          	bne	a4,t2,103e8 <fail>

00010200 <test_9>:
   10200:	00000093          	li	ra,0
   10204:	7ff0b713          	sltiu	a4,ra,2047
   10208:	00100393          	li	t2,1
   1020c:	00900193          	li	gp,9
   10210:	1c771c63          	bne	a4,t2,103e8 <fail>

00010214 <test_10>:
   10214:	800000b7          	lui	ra,0x80000
   10218:	fff08093          	addi	ra,ra,-1 # 7fffffff <_end+0x7ffedfff>
   1021c:	0000b713          	sltiu	a4,ra,0
   10220:	00000393          	li	t2,0
   10224:	00a00193          	li	gp,10
   10228:	1c771063          	bne	a4,t2,103e8 <fail>

0001022c <test_11>:
   1022c:	800000b7          	lui	ra,0x80000
   10230:	fff08093          	addi	ra,ra,-1 # 7fffffff <_end+0x7ffedfff>
   10234:	7ff0b713          	sltiu	a4,ra,2047
   10238:	00000393          	li	t2,0
   1023c:	00b00193          	li	gp,11
   10240:	1a771463          	bne	a4,t2,103e8 <fail>

00010244 <test_12>:
   10244:	800000b7          	lui	ra,0x80000
   10248:	7ff0b713          	sltiu	a4,ra,2047
   1024c:	00000393          	li	t2,0
   10250:	00c00193          	li	gp,12
   10254:	18771a63          	bne	a4,t2,103e8 <fail>

00010258 <test_13>:
   10258:	800000b7          	lui	ra,0x80000
   1025c:	fff08093          	addi	ra,ra,-1 # 7fffffff <_end+0x7ffedfff>
   10260:	8000b713          	sltiu	a4,ra,-2048
   10264:	00100393          	li	t2,1
   10268:	00d00193          	li	gp,13
   1026c:	16771e63          	bne	a4,t2,103e8 <fail>

00010270 <test_14>:
   10270:	00000093          	li	ra,0
   10274:	fff0b713          	sltiu	a4,ra,-1
   10278:	00100393          	li	t2,1
   1027c:	00e00193          	li	gp,14
   10280:	16771463          	bne	a4,t2,103e8 <fail>

00010284 <test_15>:
   10284:	fff00093          	li	ra,-1
   10288:	0010b713          	seqz	a4,ra
   1028c:	00000393          	li	t2,0
   10290:	00f00193          	li	gp,15
   10294:	14771a63          	bne	a4,t2,103e8 <fail>

00010298 <test_16>:
   10298:	fff00093          	li	ra,-1
   1029c:	fff0b713          	sltiu	a4,ra,-1
   102a0:	00000393          	li	t2,0
   102a4:	01000193          	li	gp,16
   102a8:	14771063          	bne	a4,t2,103e8 <fail>

000102ac <test_17>:
   102ac:	00b00093          	li	ra,11
   102b0:	00d0b093          	sltiu	ra,ra,13
   102b4:	00100393          	li	t2,1
   102b8:	01100193          	li	gp,17
   102bc:	12709663          	bne	ra,t2,103e8 <fail>

000102c0 <test_18>:
   102c0:	00000213          	li	tp,0
   102c4:	00f00093          	li	ra,15
   102c8:	00a0b713          	sltiu	a4,ra,10
   102cc:	00070313          	mv	t1,a4
   102d0:	00120213          	addi	tp,tp,1 # 1 <_start-0xffff>
   102d4:	00200293          	li	t0,2
   102d8:	fe5216e3          	bne	tp,t0,102c4 <test_18+0x4>
   102dc:	00000393          	li	t2,0
   102e0:	01200193          	li	gp,18
   102e4:	10731263          	bne	t1,t2,103e8 <fail>

000102e8 <test_19>:
   102e8:	00000213          	li	tp,0
   102ec:	00a00093          	li	ra,10
   102f0:	0100b713          	sltiu	a4,ra,16
   102f4:	00000013          	nop
   102f8:	00070313          	mv	t1,a4
   102fc:	00120213          	addi	tp,tp,1 # 1 <_start-0xffff>
   10300:	00200293          	li	t0,2
   10304:	fe5214e3          	bne	tp,t0,102ec <test_19+0x4>
   10308:	00100393          	li	t2,1
   1030c:	01300193          	li	gp,19
   10310:	0c731c63          	bne	t1,t2,103e8 <fail>

00010314 <test_20>:
   10314:	00000213          	li	tp,0
   10318:	01000093          	li	ra,16
   1031c:	0090b713          	sltiu	a4,ra,9
   10320:	00000013          	nop
   10324:	00000013          	nop
   10328:	00070313          	mv	t1,a4
   1032c:	00120213          	addi	tp,tp,1 # 1 <_start-0xffff>
   10330:	00200293          	li	t0,2
   10334:	fe5212e3          	bne	tp,t0,10318 <test_20+0x4>
   10338:	00000393          	li	t2,0
   1033c:	01400193          	li	gp,20
   10340:	0a731463          	bne	t1,t2,103e8 <fail>

00010344 <test_21>:
   10344:	00000213          	li	tp,0
   10348:	00b00093          	li	ra,11
   1034c:	00f0b713          	sltiu	a4,ra,15
   10350:	00120213          	addi	tp,tp,1 # 1 <_start-0xffff>
   10354:	00200293          	li	t0,2
   10358:	fe5218e3          	bne	tp,t0,10348 <test_21+0x4>
   1035c:	00100393          	li	t2,1
   10360:	01500193          	li	gp,21
   10364:	08771263          	bne	a4,t2,103e8 <fail>

00010368 <test_22>:
   10368:	00000213          	li	tp,0
   1036c:	01100093          	li	ra,17
   10370:	00000013          	nop
   10374:	0080b713          	sltiu	a4,ra,8
   10378:	00120213          	addi	tp,tp,1 # 1 <_start-0xffff>
   1037c:	00200293          	li	t0,2
   10380:	fe5216e3          	bne	tp,t0,1036c <test_22+0x4>
   10384:	00000393          	li	t2,0
   10388:	01600193          	li	gp,22
   1038c:	04771e63          	bne	a4,t2,103e8 <fail>

00010390 <test_23>:
   10390:	00000213          	li	tp,0
   10394:	00c00093          	li	ra,12
   10398:	00000013          	nop
   1039c:	00000013          	nop
   103a0:	00e0b713          	sltiu	a4,ra,14
   103a4:	00120213          	addi	tp,tp,1 # 1 <_start-0xffff>
   103a8:	00200293          	li	t0,2
   103ac:	fe5214e3          	bne	tp,t0,10394 <test_23+0x4>
   103b0:	00100393          	li	t2,1
   103b4:	01700193          	li	gp,23
   103b8:	02771863          	bne	a4,t2,103e8 <fail>

000103bc <test_24>:
   103bc:	fff03093          	sltiu	ra,zero,-1
   103c0:	00100393          	li	t2,1
   103c4:	01800193          	li	gp,24
   103c8:	02709063          	bne	ra,t2,103e8 <fail>

000103cc <test_25>:
   103cc:	00ff00b7          	lui	ra,0xff0
   103d0:	0ff08093          	addi	ra,ra,255 # ff00ff <_end+0xfde0ff>
   103d4:	fff0b013          	sltiu	zero,ra,-1
   103d8:	00000393          	li	t2,0
   103dc:	01900193          	li	gp,25
   103e0:	00701463          	bne	zero,t2,103e8 <fail>
   103e4:	02301063          	bne	zero,gp,10404 <pass>

000103e8 <fail>:
   103e8:	0ff0000f          	fence
   103ec:	00018063          	beqz	gp,103ec <fail+0x4>
   103f0:	00119193          	slli	gp,gp,0x1
   103f4:	0011e193          	ori	gp,gp,1
   103f8:	05d00893          	li	a7,93
   103fc:	00018513          	mv	a0,gp
   10400:	00000073          	ecall

00010404 <pass>:
   10404:	0ff0000f          	fence
   10408:	00100193          	li	gp,1
   1040c:	05d00893          	li	a7,93
   10410:	00000513          	li	a0,0
   10414:	00000073          	ecall
   10418:	c0001073          	unimp
   1041c:	0000                	unimp
   1041e:	0000                	unimp
   10420:	0000                	unimp
   10422:	0000                	unimp
   10424:	0000                	unimp
   10426:	0000                	unimp
   10428:	0000                	unimp
   1042a:	0000                	unimp
   1042c:	0000                	unimp
   1042e:	0000                	unimp
   10430:	0000                	unimp
   10432:	0000                	unimp
   10434:	0000                	unimp
   10436:	0000                	unimp
   10438:	0000                	unimp
   1043a:	0000                	unimp
