
rv32ui-p-srl:     file format elf32-littleriscv


Disassembly of section .text.init:

00010000 <_start>:
   10000:	0480006f          	j	10048 <reset_vector>

00010004 <trap_vector>:
   10004:	34202f73          	csrr	t5,mcause
   10008:	00800f93          	li	t6,8
   1000c:	03ff0863          	beq	t5,t6,1003c <write_tohost>
   10010:	00900f93          	li	t6,9
   10014:	03ff0463          	beq	t5,t6,1003c <write_tohost>
   10018:	00b00f93          	li	t6,11
   1001c:	03ff0063          	beq	t5,t6,1003c <write_tohost>
   10020:	00000f13          	li	t5,0
   10024:	000f0463          	beqz	t5,1002c <trap_vector+0x28>
   10028:	000f0067          	jr	t5
   1002c:	34202f73          	csrr	t5,mcause
   10030:	000f5463          	bgez	t5,10038 <handle_exception>
   10034:	0040006f          	j	10038 <handle_exception>

00010038 <handle_exception>:
   10038:	5391e193          	ori	gp,gp,1337

0001003c <write_tohost>:
   1003c:	00001f17          	auipc	t5,0x1
   10040:	fc3f2223          	sw	gp,-60(t5) # 11000 <tohost>
   10044:	ff9ff06f          	j	1003c <write_tohost>

00010048 <reset_vector>:
   10048:	00000093          	li	ra,0
   1004c:	00000113          	li	sp,0
   10050:	00000193          	li	gp,0
   10054:	00000213          	li	tp,0
   10058:	00000293          	li	t0,0
   1005c:	00000313          	li	t1,0
   10060:	00000393          	li	t2,0
   10064:	00000413          	li	s0,0
   10068:	00000493          	li	s1,0
   1006c:	00000513          	li	a0,0
   10070:	00000593          	li	a1,0
   10074:	00000613          	li	a2,0
   10078:	00000693          	li	a3,0
   1007c:	00000713          	li	a4,0
   10080:	00000793          	li	a5,0
   10084:	00000813          	li	a6,0
   10088:	00000893          	li	a7,0
   1008c:	00000913          	li	s2,0
   10090:	00000993          	li	s3,0
   10094:	00000a13          	li	s4,0
   10098:	00000a93          	li	s5,0
   1009c:	00000b13          	li	s6,0
   100a0:	00000b93          	li	s7,0
   100a4:	00000c13          	li	s8,0
   100a8:	00000c93          	li	s9,0
   100ac:	00000d13          	li	s10,0
   100b0:	00000d93          	li	s11,0
   100b4:	00000e13          	li	t3,0
   100b8:	00000e93          	li	t4,0
   100bc:	00000f13          	li	t5,0
   100c0:	00000f93          	li	t6,0
   100c4:	f1402573          	csrr	a0,mhartid
   100c8:	00051063          	bnez	a0,100c8 <reset_vector+0x80>
   100cc:	00000297          	auipc	t0,0x0
   100d0:	01028293          	addi	t0,t0,16 # 100dc <reset_vector+0x94>
   100d4:	30529073          	csrw	mtvec,t0
   100d8:	18005073          	csrwi	satp,0
   100dc:	00000297          	auipc	t0,0x0
   100e0:	02028293          	addi	t0,t0,32 # 100fc <reset_vector+0xb4>
   100e4:	30529073          	csrw	mtvec,t0
   100e8:	800002b7          	lui	t0,0x80000
   100ec:	fff28293          	addi	t0,t0,-1 # 7fffffff <_end+0x7ffedfff>
   100f0:	3b029073          	csrw	pmpaddr0,t0
   100f4:	01f00293          	li	t0,31
   100f8:	3a029073          	csrw	pmpcfg0,t0
   100fc:	00000297          	auipc	t0,0x0
   10100:	01828293          	addi	t0,t0,24 # 10114 <reset_vector+0xcc>
   10104:	30529073          	csrw	mtvec,t0
   10108:	30205073          	csrwi	medeleg,0
   1010c:	30305073          	csrwi	mideleg,0
   10110:	30405073          	csrwi	mie,0
   10114:	00000193          	li	gp,0
   10118:	00000297          	auipc	t0,0x0
   1011c:	eec28293          	addi	t0,t0,-276 # 10004 <trap_vector>
   10120:	30529073          	csrw	mtvec,t0
   10124:	00100513          	li	a0,1
   10128:	01f51513          	slli	a0,a0,0x1f
   1012c:	00054c63          	bltz	a0,10144 <reset_vector+0xfc>
   10130:	0ff0000f          	fence
   10134:	00100193          	li	gp,1
   10138:	05d00893          	li	a7,93
   1013c:	00000513          	li	a0,0
   10140:	00000073          	ecall
   10144:	00000293          	li	t0,0
   10148:	00028a63          	beqz	t0,1015c <reset_vector+0x114>
   1014c:	10529073          	csrw	stvec,t0
   10150:	0000b2b7          	lui	t0,0xb
   10154:	10928293          	addi	t0,t0,265 # b109 <_start-0x4ef7>
   10158:	30229073          	csrw	medeleg,t0
   1015c:	30005073          	csrwi	mstatus,0
   10160:	00000297          	auipc	t0,0x0
   10164:	01428293          	addi	t0,t0,20 # 10174 <test_2>
   10168:	34129073          	csrw	mepc,t0
   1016c:	f1402573          	csrr	a0,mhartid
   10170:	30200073          	mret

00010174 <test_2>:
   10174:	800000b7          	lui	ra,0x80000
   10178:	00000113          	li	sp,0
   1017c:	0020d733          	srl	a4,ra,sp
   10180:	800003b7          	lui	t2,0x80000
   10184:	00200193          	li	gp,2
   10188:	56771863          	bne	a4,t2,106f8 <fail>

0001018c <test_3>:
   1018c:	800000b7          	lui	ra,0x80000
   10190:	00100113          	li	sp,1
   10194:	0020d733          	srl	a4,ra,sp
   10198:	400003b7          	lui	t2,0x40000
   1019c:	00300193          	li	gp,3
   101a0:	54771c63          	bne	a4,t2,106f8 <fail>

000101a4 <test_4>:
   101a4:	800000b7          	lui	ra,0x80000
   101a8:	00700113          	li	sp,7
   101ac:	0020d733          	srl	a4,ra,sp
   101b0:	010003b7          	lui	t2,0x1000
   101b4:	00400193          	li	gp,4
   101b8:	54771063          	bne	a4,t2,106f8 <fail>

000101bc <test_5>:
   101bc:	800000b7          	lui	ra,0x80000
   101c0:	00e00113          	li	sp,14
   101c4:	0020d733          	srl	a4,ra,sp
   101c8:	000203b7          	lui	t2,0x20
   101cc:	00500193          	li	gp,5
   101d0:	52771463          	bne	a4,t2,106f8 <fail>

000101d4 <test_6>:
   101d4:	800000b7          	lui	ra,0x80000
   101d8:	00108093          	addi	ra,ra,1 # 80000001 <_end+0x7ffee001>
   101dc:	01f00113          	li	sp,31
   101e0:	0020d733          	srl	a4,ra,sp
   101e4:	00100393          	li	t2,1
   101e8:	00600193          	li	gp,6
   101ec:	50771663          	bne	a4,t2,106f8 <fail>

000101f0 <test_7>:
   101f0:	fff00093          	li	ra,-1
   101f4:	00000113          	li	sp,0
   101f8:	0020d733          	srl	a4,ra,sp
   101fc:	fff00393          	li	t2,-1
   10200:	00700193          	li	gp,7
   10204:	4e771a63          	bne	a4,t2,106f8 <fail>

00010208 <test_8>:
   10208:	fff00093          	li	ra,-1
   1020c:	00100113          	li	sp,1
   10210:	0020d733          	srl	a4,ra,sp
   10214:	800003b7          	lui	t2,0x80000
   10218:	fff38393          	addi	t2,t2,-1 # 7fffffff <_end+0x7ffedfff>
   1021c:	00800193          	li	gp,8
   10220:	4c771c63          	bne	a4,t2,106f8 <fail>

00010224 <test_9>:
   10224:	fff00093          	li	ra,-1
   10228:	00700113          	li	sp,7
   1022c:	0020d733          	srl	a4,ra,sp
   10230:	020003b7          	lui	t2,0x2000
   10234:	fff38393          	addi	t2,t2,-1 # 1ffffff <_end+0x1fedfff>
   10238:	00900193          	li	gp,9
   1023c:	4a771e63          	bne	a4,t2,106f8 <fail>

00010240 <test_10>:
   10240:	fff00093          	li	ra,-1
   10244:	00e00113          	li	sp,14
   10248:	0020d733          	srl	a4,ra,sp
   1024c:	000403b7          	lui	t2,0x40
   10250:	fff38393          	addi	t2,t2,-1 # 3ffff <_end+0x2dfff>
   10254:	00a00193          	li	gp,10
   10258:	4a771063          	bne	a4,t2,106f8 <fail>

0001025c <test_11>:
   1025c:	fff00093          	li	ra,-1
   10260:	01f00113          	li	sp,31
   10264:	0020d733          	srl	a4,ra,sp
   10268:	00100393          	li	t2,1
   1026c:	00b00193          	li	gp,11
   10270:	48771463          	bne	a4,t2,106f8 <fail>

00010274 <test_12>:
   10274:	212120b7          	lui	ra,0x21212
   10278:	12108093          	addi	ra,ra,289 # 21212121 <_end+0x21200121>
   1027c:	00000113          	li	sp,0
   10280:	0020d733          	srl	a4,ra,sp
   10284:	212123b7          	lui	t2,0x21212
   10288:	12138393          	addi	t2,t2,289 # 21212121 <_end+0x21200121>
   1028c:	00c00193          	li	gp,12
   10290:	46771463          	bne	a4,t2,106f8 <fail>

00010294 <test_13>:
   10294:	212120b7          	lui	ra,0x21212
   10298:	12108093          	addi	ra,ra,289 # 21212121 <_end+0x21200121>
   1029c:	00100113          	li	sp,1
   102a0:	0020d733          	srl	a4,ra,sp
   102a4:	109093b7          	lui	t2,0x10909
   102a8:	09038393          	addi	t2,t2,144 # 10909090 <_end+0x108f7090>
   102ac:	00d00193          	li	gp,13
   102b0:	44771463          	bne	a4,t2,106f8 <fail>

000102b4 <test_14>:
   102b4:	212120b7          	lui	ra,0x21212
   102b8:	12108093          	addi	ra,ra,289 # 21212121 <_end+0x21200121>
   102bc:	00700113          	li	sp,7
   102c0:	0020d733          	srl	a4,ra,sp
   102c4:	004243b7          	lui	t2,0x424
   102c8:	24238393          	addi	t2,t2,578 # 424242 <_end+0x412242>
   102cc:	00e00193          	li	gp,14
   102d0:	42771463          	bne	a4,t2,106f8 <fail>

000102d4 <test_15>:
   102d4:	212120b7          	lui	ra,0x21212
   102d8:	12108093          	addi	ra,ra,289 # 21212121 <_end+0x21200121>
   102dc:	00e00113          	li	sp,14
   102e0:	0020d733          	srl	a4,ra,sp
   102e4:	000083b7          	lui	t2,0x8
   102e8:	48438393          	addi	t2,t2,1156 # 8484 <_start-0x7b7c>
   102ec:	00f00193          	li	gp,15
   102f0:	40771463          	bne	a4,t2,106f8 <fail>

000102f4 <test_16>:
   102f4:	212120b7          	lui	ra,0x21212
   102f8:	12108093          	addi	ra,ra,289 # 21212121 <_end+0x21200121>
   102fc:	01f00113          	li	sp,31
   10300:	0020d733          	srl	a4,ra,sp
   10304:	00000393          	li	t2,0
   10308:	01000193          	li	gp,16
   1030c:	3e771663          	bne	a4,t2,106f8 <fail>

00010310 <test_17>:
   10310:	212120b7          	lui	ra,0x21212
   10314:	12108093          	addi	ra,ra,289 # 21212121 <_end+0x21200121>
   10318:	fc000113          	li	sp,-64
   1031c:	0020d733          	srl	a4,ra,sp
   10320:	212123b7          	lui	t2,0x21212
   10324:	12138393          	addi	t2,t2,289 # 21212121 <_end+0x21200121>
   10328:	01100193          	li	gp,17
   1032c:	3c771663          	bne	a4,t2,106f8 <fail>

00010330 <test_18>:
   10330:	212120b7          	lui	ra,0x21212
   10334:	12108093          	addi	ra,ra,289 # 21212121 <_end+0x21200121>
   10338:	fc100113          	li	sp,-63
   1033c:	0020d733          	srl	a4,ra,sp
   10340:	109093b7          	lui	t2,0x10909
   10344:	09038393          	addi	t2,t2,144 # 10909090 <_end+0x108f7090>
   10348:	01200193          	li	gp,18
   1034c:	3a771663          	bne	a4,t2,106f8 <fail>

00010350 <test_19>:
   10350:	212120b7          	lui	ra,0x21212
   10354:	12108093          	addi	ra,ra,289 # 21212121 <_end+0x21200121>
   10358:	fc700113          	li	sp,-57
   1035c:	0020d733          	srl	a4,ra,sp
   10360:	004243b7          	lui	t2,0x424
   10364:	24238393          	addi	t2,t2,578 # 424242 <_end+0x412242>
   10368:	01300193          	li	gp,19
   1036c:	38771663          	bne	a4,t2,106f8 <fail>

00010370 <test_20>:
   10370:	212120b7          	lui	ra,0x21212
   10374:	12108093          	addi	ra,ra,289 # 21212121 <_end+0x21200121>
   10378:	fce00113          	li	sp,-50
   1037c:	0020d733          	srl	a4,ra,sp
   10380:	000083b7          	lui	t2,0x8
   10384:	48438393          	addi	t2,t2,1156 # 8484 <_start-0x7b7c>
   10388:	01400193          	li	gp,20
   1038c:	36771663          	bne	a4,t2,106f8 <fail>

00010390 <test_21>:
   10390:	212120b7          	lui	ra,0x21212
   10394:	12108093          	addi	ra,ra,289 # 21212121 <_end+0x21200121>
   10398:	fff00113          	li	sp,-1
   1039c:	0020d733          	srl	a4,ra,sp
   103a0:	00000393          	li	t2,0
   103a4:	01500193          	li	gp,21
   103a8:	34771863          	bne	a4,t2,106f8 <fail>

000103ac <test_22>:
   103ac:	800000b7          	lui	ra,0x80000
   103b0:	00700113          	li	sp,7
   103b4:	0020d0b3          	srl	ra,ra,sp
   103b8:	010003b7          	lui	t2,0x1000
   103bc:	01600193          	li	gp,22
   103c0:	32709c63          	bne	ra,t2,106f8 <fail>

000103c4 <test_23>:
   103c4:	800000b7          	lui	ra,0x80000
   103c8:	00e00113          	li	sp,14
   103cc:	0020d133          	srl	sp,ra,sp
   103d0:	000203b7          	lui	t2,0x20
   103d4:	01700193          	li	gp,23
   103d8:	32711063          	bne	sp,t2,106f8 <fail>

000103dc <test_24>:
   103dc:	00700093          	li	ra,7
   103e0:	0010d0b3          	srl	ra,ra,ra
   103e4:	00000393          	li	t2,0
   103e8:	01800193          	li	gp,24
   103ec:	30709663          	bne	ra,t2,106f8 <fail>

000103f0 <test_25>:
   103f0:	00000213          	li	tp,0
   103f4:	800000b7          	lui	ra,0x80000
   103f8:	00700113          	li	sp,7
   103fc:	0020d733          	srl	a4,ra,sp
   10400:	00070313          	mv	t1,a4
   10404:	00120213          	addi	tp,tp,1 # 1 <_start-0xffff>
   10408:	00200293          	li	t0,2
   1040c:	fe5214e3          	bne	tp,t0,103f4 <test_25+0x4>
   10410:	010003b7          	lui	t2,0x1000
   10414:	01900193          	li	gp,25
   10418:	2e731063          	bne	t1,t2,106f8 <fail>

0001041c <test_26>:
   1041c:	00000213          	li	tp,0
   10420:	800000b7          	lui	ra,0x80000
   10424:	00e00113          	li	sp,14
   10428:	0020d733          	srl	a4,ra,sp
   1042c:	00000013          	nop
   10430:	00070313          	mv	t1,a4
   10434:	00120213          	addi	tp,tp,1 # 1 <_start-0xffff>
   10438:	00200293          	li	t0,2
   1043c:	fe5212e3          	bne	tp,t0,10420 <test_26+0x4>
   10440:	000203b7          	lui	t2,0x20
   10444:	01a00193          	li	gp,26
   10448:	2a731863          	bne	t1,t2,106f8 <fail>

0001044c <test_27>:
   1044c:	00000213          	li	tp,0
   10450:	800000b7          	lui	ra,0x80000
   10454:	01f00113          	li	sp,31
   10458:	0020d733          	srl	a4,ra,sp
   1045c:	00000013          	nop
   10460:	00000013          	nop
   10464:	00070313          	mv	t1,a4
   10468:	00120213          	addi	tp,tp,1 # 1 <_start-0xffff>
   1046c:	00200293          	li	t0,2
   10470:	fe5210e3          	bne	tp,t0,10450 <test_27+0x4>
   10474:	00100393          	li	t2,1
   10478:	01b00193          	li	gp,27
   1047c:	26731e63          	bne	t1,t2,106f8 <fail>

00010480 <test_28>:
   10480:	00000213          	li	tp,0
   10484:	800000b7          	lui	ra,0x80000
   10488:	00700113          	li	sp,7
   1048c:	0020d733          	srl	a4,ra,sp
   10490:	00120213          	addi	tp,tp,1 # 1 <_start-0xffff>
   10494:	00200293          	li	t0,2
   10498:	fe5216e3          	bne	tp,t0,10484 <test_28+0x4>
   1049c:	010003b7          	lui	t2,0x1000
   104a0:	01c00193          	li	gp,28
   104a4:	24771a63          	bne	a4,t2,106f8 <fail>

000104a8 <test_29>:
   104a8:	00000213          	li	tp,0
   104ac:	800000b7          	lui	ra,0x80000
   104b0:	00e00113          	li	sp,14
   104b4:	00000013          	nop
   104b8:	0020d733          	srl	a4,ra,sp
   104bc:	00120213          	addi	tp,tp,1 # 1 <_start-0xffff>
   104c0:	00200293          	li	t0,2
   104c4:	fe5214e3          	bne	tp,t0,104ac <test_29+0x4>
   104c8:	000203b7          	lui	t2,0x20
   104cc:	01d00193          	li	gp,29
   104d0:	22771463          	bne	a4,t2,106f8 <fail>

000104d4 <test_30>:
   104d4:	00000213          	li	tp,0
   104d8:	800000b7          	lui	ra,0x80000
   104dc:	01f00113          	li	sp,31
   104e0:	00000013          	nop
   104e4:	00000013          	nop
   104e8:	0020d733          	srl	a4,ra,sp
   104ec:	00120213          	addi	tp,tp,1 # 1 <_start-0xffff>
   104f0:	00200293          	li	t0,2
   104f4:	fe5212e3          	bne	tp,t0,104d8 <test_30+0x4>
   104f8:	00100393          	li	t2,1
   104fc:	01e00193          	li	gp,30
   10500:	1e771c63          	bne	a4,t2,106f8 <fail>

00010504 <test_31>:
   10504:	00000213          	li	tp,0
   10508:	800000b7          	lui	ra,0x80000
   1050c:	00000013          	nop
   10510:	00700113          	li	sp,7
   10514:	0020d733          	srl	a4,ra,sp
   10518:	00120213          	addi	tp,tp,1 # 1 <_start-0xffff>
   1051c:	00200293          	li	t0,2
   10520:	fe5214e3          	bne	tp,t0,10508 <test_31+0x4>
   10524:	010003b7          	lui	t2,0x1000
   10528:	01f00193          	li	gp,31
   1052c:	1c771663          	bne	a4,t2,106f8 <fail>

00010530 <test_32>:
   10530:	00000213          	li	tp,0
   10534:	800000b7          	lui	ra,0x80000
   10538:	00000013          	nop
   1053c:	00e00113          	li	sp,14
   10540:	00000013          	nop
   10544:	0020d733          	srl	a4,ra,sp
   10548:	00120213          	addi	tp,tp,1 # 1 <_start-0xffff>
   1054c:	00200293          	li	t0,2
   10550:	fe5212e3          	bne	tp,t0,10534 <test_32+0x4>
   10554:	000203b7          	lui	t2,0x20
   10558:	02000193          	li	gp,32
   1055c:	18771e63          	bne	a4,t2,106f8 <fail>

00010560 <test_33>:
   10560:	00000213          	li	tp,0
   10564:	800000b7          	lui	ra,0x80000
   10568:	00000013          	nop
   1056c:	00000013          	nop
   10570:	01f00113          	li	sp,31
   10574:	0020d733          	srl	a4,ra,sp
   10578:	00120213          	addi	tp,tp,1 # 1 <_start-0xffff>
   1057c:	00200293          	li	t0,2
   10580:	fe5212e3          	bne	tp,t0,10564 <test_33+0x4>
   10584:	00100393          	li	t2,1
   10588:	02100193          	li	gp,33
   1058c:	16771663          	bne	a4,t2,106f8 <fail>

00010590 <test_34>:
   10590:	00000213          	li	tp,0
   10594:	00700113          	li	sp,7
   10598:	800000b7          	lui	ra,0x80000
   1059c:	0020d733          	srl	a4,ra,sp
   105a0:	00120213          	addi	tp,tp,1 # 1 <_start-0xffff>
   105a4:	00200293          	li	t0,2
   105a8:	fe5216e3          	bne	tp,t0,10594 <test_34+0x4>
   105ac:	010003b7          	lui	t2,0x1000
   105b0:	02200193          	li	gp,34
   105b4:	14771263          	bne	a4,t2,106f8 <fail>

000105b8 <test_35>:
   105b8:	00000213          	li	tp,0
   105bc:	00e00113          	li	sp,14
   105c0:	800000b7          	lui	ra,0x80000
   105c4:	00000013          	nop
   105c8:	0020d733          	srl	a4,ra,sp
   105cc:	00120213          	addi	tp,tp,1 # 1 <_start-0xffff>
   105d0:	00200293          	li	t0,2
   105d4:	fe5214e3          	bne	tp,t0,105bc <test_35+0x4>
   105d8:	000203b7          	lui	t2,0x20
   105dc:	02300193          	li	gp,35
   105e0:	10771c63          	bne	a4,t2,106f8 <fail>

000105e4 <test_36>:
   105e4:	00000213          	li	tp,0
   105e8:	01f00113          	li	sp,31
   105ec:	800000b7          	lui	ra,0x80000
   105f0:	00000013          	nop
   105f4:	00000013          	nop
   105f8:	0020d733          	srl	a4,ra,sp
   105fc:	00120213          	addi	tp,tp,1 # 1 <_start-0xffff>
   10600:	00200293          	li	t0,2
   10604:	fe5212e3          	bne	tp,t0,105e8 <test_36+0x4>
   10608:	00100393          	li	t2,1
   1060c:	02400193          	li	gp,36
   10610:	0e771463          	bne	a4,t2,106f8 <fail>

00010614 <test_37>:
   10614:	00000213          	li	tp,0
   10618:	00700113          	li	sp,7
   1061c:	00000013          	nop
   10620:	800000b7          	lui	ra,0x80000
   10624:	0020d733          	srl	a4,ra,sp
   10628:	00120213          	addi	tp,tp,1 # 1 <_start-0xffff>
   1062c:	00200293          	li	t0,2
   10630:	fe5214e3          	bne	tp,t0,10618 <test_37+0x4>
   10634:	010003b7          	lui	t2,0x1000
   10638:	02500193          	li	gp,37
   1063c:	0a771e63          	bne	a4,t2,106f8 <fail>

00010640 <test_38>:
   10640:	00000213          	li	tp,0
   10644:	00e00113          	li	sp,14
   10648:	00000013          	nop
   1064c:	800000b7          	lui	ra,0x80000
   10650:	00000013          	nop
   10654:	0020d733          	srl	a4,ra,sp
   10658:	00120213          	addi	tp,tp,1 # 1 <_start-0xffff>
   1065c:	00200293          	li	t0,2
   10660:	fe5212e3          	bne	tp,t0,10644 <test_38+0x4>
   10664:	000203b7          	lui	t2,0x20
   10668:	02600193          	li	gp,38
   1066c:	08771663          	bne	a4,t2,106f8 <fail>

00010670 <test_39>:
   10670:	00000213          	li	tp,0
   10674:	01f00113          	li	sp,31
   10678:	00000013          	nop
   1067c:	00000013          	nop
   10680:	800000b7          	lui	ra,0x80000
   10684:	0020d733          	srl	a4,ra,sp
   10688:	00120213          	addi	tp,tp,1 # 1 <_start-0xffff>
   1068c:	00200293          	li	t0,2
   10690:	fe5212e3          	bne	tp,t0,10674 <test_39+0x4>
   10694:	00100393          	li	t2,1
   10698:	02700193          	li	gp,39
   1069c:	04771e63          	bne	a4,t2,106f8 <fail>

000106a0 <test_40>:
   106a0:	00f00093          	li	ra,15
   106a4:	00105133          	srl	sp,zero,ra
   106a8:	00000393          	li	t2,0
   106ac:	02800193          	li	gp,40
   106b0:	04711463          	bne	sp,t2,106f8 <fail>

000106b4 <test_41>:
   106b4:	02000093          	li	ra,32
   106b8:	0000d133          	srl	sp,ra,zero
   106bc:	02000393          	li	t2,32
   106c0:	02900193          	li	gp,41
   106c4:	02711a63          	bne	sp,t2,106f8 <fail>

000106c8 <test_42>:
   106c8:	000050b3          	srl	ra,zero,zero
   106cc:	00000393          	li	t2,0
   106d0:	02a00193          	li	gp,42
   106d4:	02709263          	bne	ra,t2,106f8 <fail>

000106d8 <test_43>:
   106d8:	40000093          	li	ra,1024
   106dc:	00001137          	lui	sp,0x1
   106e0:	80010113          	addi	sp,sp,-2048 # 800 <_start-0xf800>
   106e4:	0020d033          	srl	zero,ra,sp
   106e8:	00000393          	li	t2,0
   106ec:	02b00193          	li	gp,43
   106f0:	00701463          	bne	zero,t2,106f8 <fail>
   106f4:	02301063          	bne	zero,gp,10714 <pass>

000106f8 <fail>:
   106f8:	0ff0000f          	fence
   106fc:	00018063          	beqz	gp,106fc <fail+0x4>
   10700:	00119193          	slli	gp,gp,0x1
   10704:	0011e193          	ori	gp,gp,1
   10708:	05d00893          	li	a7,93
   1070c:	00018513          	mv	a0,gp
   10710:	00000073          	ecall

00010714 <pass>:
   10714:	0ff0000f          	fence
   10718:	00100193          	li	gp,1
   1071c:	05d00893          	li	a7,93
   10720:	00000513          	li	a0,0
   10724:	00000073          	ecall
   10728:	c0001073          	unimp
   1072c:	0000                	unimp
   1072e:	0000                	unimp
   10730:	0000                	unimp
   10732:	0000                	unimp
   10734:	0000                	unimp
   10736:	0000                	unimp
   10738:	0000                	unimp
   1073a:	0000                	unimp
