
rv32ui-p-lh:     file format elf32-littleriscv


Disassembly of section .text.init:

00010000 <_start>:
   10000:	0480006f          	j	10048 <reset_vector>

00010004 <trap_vector>:
   10004:	34202f73          	csrr	t5,mcause
   10008:	00800f93          	li	t6,8
   1000c:	03ff0863          	beq	t5,t6,1003c <write_tohost>
   10010:	00900f93          	li	t6,9
   10014:	03ff0463          	beq	t5,t6,1003c <write_tohost>
   10018:	00b00f93          	li	t6,11
   1001c:	03ff0063          	beq	t5,t6,1003c <write_tohost>
   10020:	00000f13          	li	t5,0
   10024:	000f0463          	beqz	t5,1002c <trap_vector+0x28>
   10028:	000f0067          	jr	t5
   1002c:	34202f73          	csrr	t5,mcause
   10030:	000f5463          	bgez	t5,10038 <handle_exception>
   10034:	0040006f          	j	10038 <handle_exception>

00010038 <handle_exception>:
   10038:	5391e193          	ori	gp,gp,1337

0001003c <write_tohost>:
   1003c:	00001f17          	auipc	t5,0x1
   10040:	fc3f2223          	sw	gp,-60(t5) # 11000 <tohost>
   10044:	ff9ff06f          	j	1003c <write_tohost>

00010048 <reset_vector>:
   10048:	00000093          	li	ra,0
   1004c:	00000113          	li	sp,0
   10050:	00000193          	li	gp,0
   10054:	00000213          	li	tp,0
   10058:	00000293          	li	t0,0
   1005c:	00000313          	li	t1,0
   10060:	00000393          	li	t2,0
   10064:	00000413          	li	s0,0
   10068:	00000493          	li	s1,0
   1006c:	00000513          	li	a0,0
   10070:	00000593          	li	a1,0
   10074:	00000613          	li	a2,0
   10078:	00000693          	li	a3,0
   1007c:	00000713          	li	a4,0
   10080:	00000793          	li	a5,0
   10084:	00000813          	li	a6,0
   10088:	00000893          	li	a7,0
   1008c:	00000913          	li	s2,0
   10090:	00000993          	li	s3,0
   10094:	00000a13          	li	s4,0
   10098:	00000a93          	li	s5,0
   1009c:	00000b13          	li	s6,0
   100a0:	00000b93          	li	s7,0
   100a4:	00000c13          	li	s8,0
   100a8:	00000c93          	li	s9,0
   100ac:	00000d13          	li	s10,0
   100b0:	00000d93          	li	s11,0
   100b4:	00000e13          	li	t3,0
   100b8:	00000e93          	li	t4,0
   100bc:	00000f13          	li	t5,0
   100c0:	00000f93          	li	t6,0
   100c4:	f1402573          	csrr	a0,mhartid
   100c8:	00051063          	bnez	a0,100c8 <reset_vector+0x80>
   100cc:	00000297          	auipc	t0,0x0
   100d0:	01028293          	addi	t0,t0,16 # 100dc <reset_vector+0x94>
   100d4:	30529073          	csrw	mtvec,t0
   100d8:	18005073          	csrwi	satp,0
   100dc:	00000297          	auipc	t0,0x0
   100e0:	02028293          	addi	t0,t0,32 # 100fc <reset_vector+0xb4>
   100e4:	30529073          	csrw	mtvec,t0
   100e8:	800002b7          	lui	t0,0x80000
   100ec:	fff28293          	addi	t0,t0,-1 # 7fffffff <_end+0x7ffedfef>
   100f0:	3b029073          	csrw	pmpaddr0,t0
   100f4:	01f00293          	li	t0,31
   100f8:	3a029073          	csrw	pmpcfg0,t0
   100fc:	00000297          	auipc	t0,0x0
   10100:	01828293          	addi	t0,t0,24 # 10114 <reset_vector+0xcc>
   10104:	30529073          	csrw	mtvec,t0
   10108:	30205073          	csrwi	medeleg,0
   1010c:	30305073          	csrwi	mideleg,0
   10110:	30405073          	csrwi	mie,0
   10114:	00000193          	li	gp,0
   10118:	00000297          	auipc	t0,0x0
   1011c:	eec28293          	addi	t0,t0,-276 # 10004 <trap_vector>
   10120:	30529073          	csrw	mtvec,t0
   10124:	00100513          	li	a0,1
   10128:	01f51513          	slli	a0,a0,0x1f
   1012c:	00054c63          	bltz	a0,10144 <reset_vector+0xfc>
   10130:	0ff0000f          	fence
   10134:	00100193          	li	gp,1
   10138:	05d00893          	li	a7,93
   1013c:	00000513          	li	a0,0
   10140:	00000073          	ecall
   10144:	00000293          	li	t0,0
   10148:	00028a63          	beqz	t0,1015c <reset_vector+0x114>
   1014c:	10529073          	csrw	stvec,t0
   10150:	0000b2b7          	lui	t0,0xb
   10154:	10928293          	addi	t0,t0,265 # b109 <_start-0x4ef7>
   10158:	30229073          	csrw	medeleg,t0
   1015c:	30005073          	csrwi	mstatus,0
   10160:	00000297          	auipc	t0,0x0
   10164:	01428293          	addi	t0,t0,20 # 10174 <test_2>
   10168:	34129073          	csrw	mepc,t0
   1016c:	f1402573          	csrr	a0,mhartid
   10170:	30200073          	mret

00010174 <test_2>:
   10174:	00002097          	auipc	ra,0x2
   10178:	e8c08093          	addi	ra,ra,-372 # 12000 <begin_signature>
   1017c:	00009703          	lh	a4,0(ra)
   10180:	0ff00393          	li	t2,255
   10184:	00200193          	li	gp,2
   10188:	24771c63          	bne	a4,t2,103e0 <fail>

0001018c <test_3>:
   1018c:	00002097          	auipc	ra,0x2
   10190:	e7408093          	addi	ra,ra,-396 # 12000 <begin_signature>
   10194:	00209703          	lh	a4,2(ra)
   10198:	f0000393          	li	t2,-256
   1019c:	00300193          	li	gp,3
   101a0:	24771063          	bne	a4,t2,103e0 <fail>

000101a4 <test_4>:
   101a4:	00002097          	auipc	ra,0x2
   101a8:	e5c08093          	addi	ra,ra,-420 # 12000 <begin_signature>
   101ac:	00409703          	lh	a4,4(ra)
   101b0:	000013b7          	lui	t2,0x1
   101b4:	ff038393          	addi	t2,t2,-16 # ff0 <_start-0xf010>
   101b8:	00400193          	li	gp,4
   101bc:	22771263          	bne	a4,t2,103e0 <fail>

000101c0 <test_5>:
   101c0:	00002097          	auipc	ra,0x2
   101c4:	e4008093          	addi	ra,ra,-448 # 12000 <begin_signature>
   101c8:	00609703          	lh	a4,6(ra)
   101cc:	fffff3b7          	lui	t2,0xfffff
   101d0:	00f38393          	addi	t2,t2,15 # fffff00f <_end+0xfffecfff>
   101d4:	00500193          	li	gp,5
   101d8:	20771463          	bne	a4,t2,103e0 <fail>

000101dc <test_6>:
   101dc:	00002097          	auipc	ra,0x2
   101e0:	e2a08093          	addi	ra,ra,-470 # 12006 <tdat4>
   101e4:	ffa09703          	lh	a4,-6(ra)
   101e8:	0ff00393          	li	t2,255
   101ec:	00600193          	li	gp,6
   101f0:	1e771863          	bne	a4,t2,103e0 <fail>

000101f4 <test_7>:
   101f4:	00002097          	auipc	ra,0x2
   101f8:	e1208093          	addi	ra,ra,-494 # 12006 <tdat4>
   101fc:	ffc09703          	lh	a4,-4(ra)
   10200:	f0000393          	li	t2,-256
   10204:	00700193          	li	gp,7
   10208:	1c771c63          	bne	a4,t2,103e0 <fail>

0001020c <test_8>:
   1020c:	00002097          	auipc	ra,0x2
   10210:	dfa08093          	addi	ra,ra,-518 # 12006 <tdat4>
   10214:	ffe09703          	lh	a4,-2(ra)
   10218:	000013b7          	lui	t2,0x1
   1021c:	ff038393          	addi	t2,t2,-16 # ff0 <_start-0xf010>
   10220:	00800193          	li	gp,8
   10224:	1a771e63          	bne	a4,t2,103e0 <fail>

00010228 <test_9>:
   10228:	00002097          	auipc	ra,0x2
   1022c:	dde08093          	addi	ra,ra,-546 # 12006 <tdat4>
   10230:	00009703          	lh	a4,0(ra)
   10234:	fffff3b7          	lui	t2,0xfffff
   10238:	00f38393          	addi	t2,t2,15 # fffff00f <_end+0xfffecfff>
   1023c:	00900193          	li	gp,9
   10240:	1a771063          	bne	a4,t2,103e0 <fail>

00010244 <test_10>:
   10244:	00002097          	auipc	ra,0x2
   10248:	dbc08093          	addi	ra,ra,-580 # 12000 <begin_signature>
   1024c:	fe008093          	addi	ra,ra,-32
   10250:	02009283          	lh	t0,32(ra)
   10254:	0ff00393          	li	t2,255
   10258:	00a00193          	li	gp,10
   1025c:	18729263          	bne	t0,t2,103e0 <fail>

00010260 <test_11>:
   10260:	00002097          	auipc	ra,0x2
   10264:	da008093          	addi	ra,ra,-608 # 12000 <begin_signature>
   10268:	ffb08093          	addi	ra,ra,-5
   1026c:	00709283          	lh	t0,7(ra)
   10270:	f0000393          	li	t2,-256
   10274:	00b00193          	li	gp,11
   10278:	16729463          	bne	t0,t2,103e0 <fail>

0001027c <test_12>:
   1027c:	00c00193          	li	gp,12
   10280:	00000213          	li	tp,0
   10284:	00002097          	auipc	ra,0x2
   10288:	d7e08093          	addi	ra,ra,-642 # 12002 <tdat2>
   1028c:	00209703          	lh	a4,2(ra)
   10290:	00070313          	mv	t1,a4
   10294:	000013b7          	lui	t2,0x1
   10298:	ff038393          	addi	t2,t2,-16 # ff0 <_start-0xf010>
   1029c:	14731263          	bne	t1,t2,103e0 <fail>
   102a0:	00120213          	addi	tp,tp,1 # 1 <_start-0xffff>
   102a4:	00200293          	li	t0,2
   102a8:	fc521ee3          	bne	tp,t0,10284 <test_12+0x8>

000102ac <test_13>:
   102ac:	00d00193          	li	gp,13
   102b0:	00000213          	li	tp,0
   102b4:	00002097          	auipc	ra,0x2
   102b8:	d5008093          	addi	ra,ra,-688 # 12004 <tdat3>
   102bc:	00209703          	lh	a4,2(ra)
   102c0:	00000013          	nop
   102c4:	00070313          	mv	t1,a4
   102c8:	fffff3b7          	lui	t2,0xfffff
   102cc:	00f38393          	addi	t2,t2,15 # fffff00f <_end+0xfffecfff>
   102d0:	10731863          	bne	t1,t2,103e0 <fail>
   102d4:	00120213          	addi	tp,tp,1 # 1 <_start-0xffff>
   102d8:	00200293          	li	t0,2
   102dc:	fc521ce3          	bne	tp,t0,102b4 <test_13+0x8>

000102e0 <test_14>:
   102e0:	00e00193          	li	gp,14
   102e4:	00000213          	li	tp,0
   102e8:	00002097          	auipc	ra,0x2
   102ec:	d1808093          	addi	ra,ra,-744 # 12000 <begin_signature>
   102f0:	00209703          	lh	a4,2(ra)
   102f4:	00000013          	nop
   102f8:	00000013          	nop
   102fc:	00070313          	mv	t1,a4
   10300:	f0000393          	li	t2,-256
   10304:	0c731e63          	bne	t1,t2,103e0 <fail>
   10308:	00120213          	addi	tp,tp,1 # 1 <_start-0xffff>
   1030c:	00200293          	li	t0,2
   10310:	fc521ce3          	bne	tp,t0,102e8 <test_14+0x8>

00010314 <test_15>:
   10314:	00f00193          	li	gp,15
   10318:	00000213          	li	tp,0
   1031c:	00002097          	auipc	ra,0x2
   10320:	ce608093          	addi	ra,ra,-794 # 12002 <tdat2>
   10324:	00209703          	lh	a4,2(ra)
   10328:	000013b7          	lui	t2,0x1
   1032c:	ff038393          	addi	t2,t2,-16 # ff0 <_start-0xf010>
   10330:	0a771863          	bne	a4,t2,103e0 <fail>
   10334:	00120213          	addi	tp,tp,1 # 1 <_start-0xffff>
   10338:	00200293          	li	t0,2
   1033c:	fe5210e3          	bne	tp,t0,1031c <test_15+0x8>

00010340 <test_16>:
   10340:	01000193          	li	gp,16
   10344:	00000213          	li	tp,0
   10348:	00002097          	auipc	ra,0x2
   1034c:	cbc08093          	addi	ra,ra,-836 # 12004 <tdat3>
   10350:	00000013          	nop
   10354:	00209703          	lh	a4,2(ra)
   10358:	fffff3b7          	lui	t2,0xfffff
   1035c:	00f38393          	addi	t2,t2,15 # fffff00f <_end+0xfffecfff>
   10360:	08771063          	bne	a4,t2,103e0 <fail>
   10364:	00120213          	addi	tp,tp,1 # 1 <_start-0xffff>
   10368:	00200293          	li	t0,2
   1036c:	fc521ee3          	bne	tp,t0,10348 <test_16+0x8>

00010370 <test_17>:
   10370:	01100193          	li	gp,17
   10374:	00000213          	li	tp,0
   10378:	00002097          	auipc	ra,0x2
   1037c:	c8808093          	addi	ra,ra,-888 # 12000 <begin_signature>
   10380:	00000013          	nop
   10384:	00000013          	nop
   10388:	00209703          	lh	a4,2(ra)
   1038c:	f0000393          	li	t2,-256
   10390:	04771863          	bne	a4,t2,103e0 <fail>
   10394:	00120213          	addi	tp,tp,1 # 1 <_start-0xffff>
   10398:	00200293          	li	t0,2
   1039c:	fc521ee3          	bne	tp,t0,10378 <test_17+0x8>

000103a0 <test_18>:
   103a0:	00002297          	auipc	t0,0x2
   103a4:	c6028293          	addi	t0,t0,-928 # 12000 <begin_signature>
   103a8:	00029103          	lh	sp,0(t0)
   103ac:	00200113          	li	sp,2
   103b0:	00200393          	li	t2,2
   103b4:	01200193          	li	gp,18
   103b8:	02711463          	bne	sp,t2,103e0 <fail>

000103bc <test_19>:
   103bc:	00002297          	auipc	t0,0x2
   103c0:	c4428293          	addi	t0,t0,-956 # 12000 <begin_signature>
   103c4:	00029103          	lh	sp,0(t0)
   103c8:	00000013          	nop
   103cc:	00200113          	li	sp,2
   103d0:	00200393          	li	t2,2
   103d4:	01300193          	li	gp,19
   103d8:	00711463          	bne	sp,t2,103e0 <fail>
   103dc:	02301063          	bne	zero,gp,103fc <pass>

000103e0 <fail>:
   103e0:	0ff0000f          	fence
   103e4:	00018063          	beqz	gp,103e4 <fail+0x4>
   103e8:	00119193          	slli	gp,gp,0x1
   103ec:	0011e193          	ori	gp,gp,1
   103f0:	05d00893          	li	a7,93
   103f4:	00018513          	mv	a0,gp
   103f8:	00000073          	ecall

000103fc <pass>:
   103fc:	0ff0000f          	fence
   10400:	00100193          	li	gp,1
   10404:	05d00893          	li	a7,93
   10408:	00000513          	li	a0,0
   1040c:	00000073          	ecall
   10410:	c0001073          	unimp
   10414:	0000                	unimp
   10416:	0000                	unimp
   10418:	0000                	unimp
   1041a:	0000                	unimp
   1041c:	0000                	unimp
   1041e:	0000                	unimp
   10420:	0000                	unimp
   10422:	0000                	unimp
   10424:	0000                	unimp
   10426:	0000                	unimp
   10428:	0000                	unimp
   1042a:	0000                	unimp
   1042c:	0000                	unimp
   1042e:	0000                	unimp
   10430:	0000                	unimp
   10432:	0000                	unimp
   10434:	0000                	unimp
   10436:	0000                	unimp
   10438:	0000                	unimp
   1043a:	0000                	unimp
