
rv32ui-p-sw:     file format elf32-littleriscv


Disassembly of section .text.init:

00010000 <_start>:
   10000:	0480006f          	j	10048 <reset_vector>

00010004 <trap_vector>:
   10004:	34202f73          	csrr	t5,mcause
   10008:	00800f93          	li	t6,8
   1000c:	03ff0863          	beq	t5,t6,1003c <write_tohost>
   10010:	00900f93          	li	t6,9
   10014:	03ff0463          	beq	t5,t6,1003c <write_tohost>
   10018:	00b00f93          	li	t6,11
   1001c:	03ff0063          	beq	t5,t6,1003c <write_tohost>
   10020:	00000f13          	li	t5,0
   10024:	000f0463          	beqz	t5,1002c <trap_vector+0x28>
   10028:	000f0067          	jr	t5
   1002c:	34202f73          	csrr	t5,mcause
   10030:	000f5463          	bgez	t5,10038 <handle_exception>
   10034:	0040006f          	j	10038 <handle_exception>

00010038 <handle_exception>:
   10038:	5391e193          	ori	gp,gp,1337

0001003c <write_tohost>:
   1003c:	00001f17          	auipc	t5,0x1
   10040:	fc3f2223          	sw	gp,-60(t5) # 11000 <tohost>
   10044:	ff9ff06f          	j	1003c <write_tohost>

00010048 <reset_vector>:
   10048:	00000093          	li	ra,0
   1004c:	00000113          	li	sp,0
   10050:	00000193          	li	gp,0
   10054:	00000213          	li	tp,0
   10058:	00000293          	li	t0,0
   1005c:	00000313          	li	t1,0
   10060:	00000393          	li	t2,0
   10064:	00000413          	li	s0,0
   10068:	00000493          	li	s1,0
   1006c:	00000513          	li	a0,0
   10070:	00000593          	li	a1,0
   10074:	00000613          	li	a2,0
   10078:	00000693          	li	a3,0
   1007c:	00000713          	li	a4,0
   10080:	00000793          	li	a5,0
   10084:	00000813          	li	a6,0
   10088:	00000893          	li	a7,0
   1008c:	00000913          	li	s2,0
   10090:	00000993          	li	s3,0
   10094:	00000a13          	li	s4,0
   10098:	00000a93          	li	s5,0
   1009c:	00000b13          	li	s6,0
   100a0:	00000b93          	li	s7,0
   100a4:	00000c13          	li	s8,0
   100a8:	00000c93          	li	s9,0
   100ac:	00000d13          	li	s10,0
   100b0:	00000d93          	li	s11,0
   100b4:	00000e13          	li	t3,0
   100b8:	00000e93          	li	t4,0
   100bc:	00000f13          	li	t5,0
   100c0:	00000f93          	li	t6,0
   100c4:	f1402573          	csrr	a0,mhartid
   100c8:	00051063          	bnez	a0,100c8 <reset_vector+0x80>
   100cc:	00000297          	auipc	t0,0x0
   100d0:	01028293          	addi	t0,t0,16 # 100dc <reset_vector+0x94>
   100d4:	30529073          	csrw	mtvec,t0
   100d8:	18005073          	csrwi	satp,0
   100dc:	00000297          	auipc	t0,0x0
   100e0:	02028293          	addi	t0,t0,32 # 100fc <reset_vector+0xb4>
   100e4:	30529073          	csrw	mtvec,t0
   100e8:	800002b7          	lui	t0,0x80000
   100ec:	fff28293          	addi	t0,t0,-1 # 7fffffff <_end+0x7ffedfcf>
   100f0:	3b029073          	csrw	pmpaddr0,t0
   100f4:	01f00293          	li	t0,31
   100f8:	3a029073          	csrw	pmpcfg0,t0
   100fc:	00000297          	auipc	t0,0x0
   10100:	01828293          	addi	t0,t0,24 # 10114 <reset_vector+0xcc>
   10104:	30529073          	csrw	mtvec,t0
   10108:	30205073          	csrwi	medeleg,0
   1010c:	30305073          	csrwi	mideleg,0
   10110:	30405073          	csrwi	mie,0
   10114:	00000193          	li	gp,0
   10118:	00000297          	auipc	t0,0x0
   1011c:	eec28293          	addi	t0,t0,-276 # 10004 <trap_vector>
   10120:	30529073          	csrw	mtvec,t0
   10124:	00100513          	li	a0,1
   10128:	01f51513          	slli	a0,a0,0x1f
   1012c:	00054c63          	bltz	a0,10144 <reset_vector+0xfc>
   10130:	0ff0000f          	fence
   10134:	00100193          	li	gp,1
   10138:	05d00893          	li	a7,93
   1013c:	00000513          	li	a0,0
   10140:	00000073          	ecall
   10144:	00000293          	li	t0,0
   10148:	00028a63          	beqz	t0,1015c <reset_vector+0x114>
   1014c:	10529073          	csrw	stvec,t0
   10150:	0000b2b7          	lui	t0,0xb
   10154:	10928293          	addi	t0,t0,265 # b109 <_start-0x4ef7>
   10158:	30229073          	csrw	medeleg,t0
   1015c:	30005073          	csrwi	mstatus,0
   10160:	00000297          	auipc	t0,0x0
   10164:	01428293          	addi	t0,t0,20 # 10174 <test_2>
   10168:	34129073          	csrw	mepc,t0
   1016c:	f1402573          	csrr	a0,mhartid
   10170:	30200073          	mret

00010174 <test_2>:
   10174:	00002097          	auipc	ra,0x2
   10178:	e8c08093          	addi	ra,ra,-372 # 12000 <begin_signature>
   1017c:	00aa0137          	lui	sp,0xaa0
   10180:	0aa10113          	addi	sp,sp,170 # aa00aa <_end+0xa8e07a>
   10184:	0020a023          	sw	sp,0(ra)
   10188:	0000a703          	lw	a4,0(ra)
   1018c:	00aa03b7          	lui	t2,0xaa0
   10190:	0aa38393          	addi	t2,t2,170 # aa00aa <_end+0xa8e07a>
   10194:	00200193          	li	gp,2
   10198:	46771063          	bne	a4,t2,105f8 <fail>

0001019c <test_3>:
   1019c:	00002097          	auipc	ra,0x2
   101a0:	e6408093          	addi	ra,ra,-412 # 12000 <begin_signature>
   101a4:	aa00b137          	lui	sp,0xaa00b
   101a8:	a0010113          	addi	sp,sp,-1536 # aa00aa00 <_end+0xa9ff89d0>
   101ac:	0020a223          	sw	sp,4(ra)
   101b0:	0040a703          	lw	a4,4(ra)
   101b4:	aa00b3b7          	lui	t2,0xaa00b
   101b8:	a0038393          	addi	t2,t2,-1536 # aa00aa00 <_end+0xa9ff89d0>
   101bc:	00300193          	li	gp,3
   101c0:	42771c63          	bne	a4,t2,105f8 <fail>

000101c4 <test_4>:
   101c4:	00002097          	auipc	ra,0x2
   101c8:	e3c08093          	addi	ra,ra,-452 # 12000 <begin_signature>
   101cc:	0aa01137          	lui	sp,0xaa01
   101d0:	aa010113          	addi	sp,sp,-1376 # aa00aa0 <_end+0xa9eea70>
   101d4:	0020a423          	sw	sp,8(ra)
   101d8:	0080a703          	lw	a4,8(ra)
   101dc:	0aa013b7          	lui	t2,0xaa01
   101e0:	aa038393          	addi	t2,t2,-1376 # aa00aa0 <_end+0xa9eea70>
   101e4:	00400193          	li	gp,4
   101e8:	40771863          	bne	a4,t2,105f8 <fail>

000101ec <test_5>:
   101ec:	00002097          	auipc	ra,0x2
   101f0:	e1408093          	addi	ra,ra,-492 # 12000 <begin_signature>
   101f4:	a00aa137          	lui	sp,0xa00aa
   101f8:	00a10113          	addi	sp,sp,10 # a00aa00a <_end+0xa0097fda>
   101fc:	0020a623          	sw	sp,12(ra)
   10200:	00c0a703          	lw	a4,12(ra)
   10204:	a00aa3b7          	lui	t2,0xa00aa
   10208:	00a38393          	addi	t2,t2,10 # a00aa00a <_end+0xa0097fda>
   1020c:	00500193          	li	gp,5
   10210:	3e771463          	bne	a4,t2,105f8 <fail>

00010214 <test_6>:
   10214:	00002097          	auipc	ra,0x2
   10218:	e0808093          	addi	ra,ra,-504 # 1201c <tdat8>
   1021c:	00aa0137          	lui	sp,0xaa0
   10220:	0aa10113          	addi	sp,sp,170 # aa00aa <_end+0xa8e07a>
   10224:	fe20aa23          	sw	sp,-12(ra)
   10228:	ff40a703          	lw	a4,-12(ra)
   1022c:	00aa03b7          	lui	t2,0xaa0
   10230:	0aa38393          	addi	t2,t2,170 # aa00aa <_end+0xa8e07a>
   10234:	00600193          	li	gp,6
   10238:	3c771063          	bne	a4,t2,105f8 <fail>

0001023c <test_7>:
   1023c:	00002097          	auipc	ra,0x2
   10240:	de008093          	addi	ra,ra,-544 # 1201c <tdat8>
   10244:	aa00b137          	lui	sp,0xaa00b
   10248:	a0010113          	addi	sp,sp,-1536 # aa00aa00 <_end+0xa9ff89d0>
   1024c:	fe20ac23          	sw	sp,-8(ra)
   10250:	ff80a703          	lw	a4,-8(ra)
   10254:	aa00b3b7          	lui	t2,0xaa00b
   10258:	a0038393          	addi	t2,t2,-1536 # aa00aa00 <_end+0xa9ff89d0>
   1025c:	00700193          	li	gp,7
   10260:	38771c63          	bne	a4,t2,105f8 <fail>

00010264 <test_8>:
   10264:	00002097          	auipc	ra,0x2
   10268:	db808093          	addi	ra,ra,-584 # 1201c <tdat8>
   1026c:	0aa01137          	lui	sp,0xaa01
   10270:	aa010113          	addi	sp,sp,-1376 # aa00aa0 <_end+0xa9eea70>
   10274:	fe20ae23          	sw	sp,-4(ra)
   10278:	ffc0a703          	lw	a4,-4(ra)
   1027c:	0aa013b7          	lui	t2,0xaa01
   10280:	aa038393          	addi	t2,t2,-1376 # aa00aa0 <_end+0xa9eea70>
   10284:	00800193          	li	gp,8
   10288:	36771863          	bne	a4,t2,105f8 <fail>

0001028c <test_9>:
   1028c:	00002097          	auipc	ra,0x2
   10290:	d9008093          	addi	ra,ra,-624 # 1201c <tdat8>
   10294:	a00aa137          	lui	sp,0xa00aa
   10298:	00a10113          	addi	sp,sp,10 # a00aa00a <_end+0xa0097fda>
   1029c:	0020a023          	sw	sp,0(ra)
   102a0:	0000a703          	lw	a4,0(ra)
   102a4:	a00aa3b7          	lui	t2,0xa00aa
   102a8:	00a38393          	addi	t2,t2,10 # a00aa00a <_end+0xa0097fda>
   102ac:	00900193          	li	gp,9
   102b0:	34771463          	bne	a4,t2,105f8 <fail>

000102b4 <test_10>:
   102b4:	00002097          	auipc	ra,0x2
   102b8:	d6c08093          	addi	ra,ra,-660 # 12020 <tdat9>
   102bc:	12345137          	lui	sp,0x12345
   102c0:	67810113          	addi	sp,sp,1656 # 12345678 <_end+0x12333648>
   102c4:	fe008213          	addi	tp,ra,-32
   102c8:	02222023          	sw	sp,32(tp) # 20 <_start-0xffe0>
   102cc:	0000a283          	lw	t0,0(ra)
   102d0:	123453b7          	lui	t2,0x12345
   102d4:	67838393          	addi	t2,t2,1656 # 12345678 <_end+0x12333648>
   102d8:	00a00193          	li	gp,10
   102dc:	30729e63          	bne	t0,t2,105f8 <fail>

000102e0 <test_11>:
   102e0:	00002097          	auipc	ra,0x2
   102e4:	d4008093          	addi	ra,ra,-704 # 12020 <tdat9>
   102e8:	58213137          	lui	sp,0x58213
   102ec:	09810113          	addi	sp,sp,152 # 58213098 <_end+0x58201068>
   102f0:	ffd08093          	addi	ra,ra,-3
   102f4:	0020a3a3          	sw	sp,7(ra)
   102f8:	00002217          	auipc	tp,0x2
   102fc:	d2c20213          	addi	tp,tp,-724 # 12024 <tdat10>
   10300:	00022283          	lw	t0,0(tp) # 0 <_start-0x10000>
   10304:	582133b7          	lui	t2,0x58213
   10308:	09838393          	addi	t2,t2,152 # 58213098 <_end+0x58201068>
   1030c:	00b00193          	li	gp,11
   10310:	2e729463          	bne	t0,t2,105f8 <fail>

00010314 <test_12>:
   10314:	00c00193          	li	gp,12
   10318:	00000213          	li	tp,0
   1031c:	aabbd0b7          	lui	ra,0xaabbd
   10320:	cdd08093          	addi	ra,ra,-803 # aabbccdd <_end+0xaabaacad>
   10324:	00002117          	auipc	sp,0x2
   10328:	cdc10113          	addi	sp,sp,-804 # 12000 <begin_signature>
   1032c:	00112023          	sw	ra,0(sp)
   10330:	00012703          	lw	a4,0(sp)
   10334:	aabbd3b7          	lui	t2,0xaabbd
   10338:	cdd38393          	addi	t2,t2,-803 # aabbccdd <_end+0xaabaacad>
   1033c:	2a771e63          	bne	a4,t2,105f8 <fail>
   10340:	00120213          	addi	tp,tp,1 # 1 <_start-0xffff>
   10344:	00200293          	li	t0,2
   10348:	fc521ae3          	bne	tp,t0,1031c <test_12+0x8>

0001034c <test_13>:
   1034c:	00d00193          	li	gp,13
   10350:	00000213          	li	tp,0
   10354:	daabc0b7          	lui	ra,0xdaabc
   10358:	ccd08093          	addi	ra,ra,-819 # daabbccd <_end+0xdaaa9c9d>
   1035c:	00002117          	auipc	sp,0x2
   10360:	ca410113          	addi	sp,sp,-860 # 12000 <begin_signature>
   10364:	00000013          	nop
   10368:	00112223          	sw	ra,4(sp)
   1036c:	00412703          	lw	a4,4(sp)
   10370:	daabc3b7          	lui	t2,0xdaabc
   10374:	ccd38393          	addi	t2,t2,-819 # daabbccd <_end+0xdaaa9c9d>
   10378:	28771063          	bne	a4,t2,105f8 <fail>
   1037c:	00120213          	addi	tp,tp,1 # 1 <_start-0xffff>
   10380:	00200293          	li	t0,2
   10384:	fc5218e3          	bne	tp,t0,10354 <test_13+0x8>

00010388 <test_14>:
   10388:	00e00193          	li	gp,14
   1038c:	00000213          	li	tp,0
   10390:	ddaac0b7          	lui	ra,0xddaac
   10394:	bcc08093          	addi	ra,ra,-1076 # ddaabbcc <_end+0xdda99b9c>
   10398:	00002117          	auipc	sp,0x2
   1039c:	c6810113          	addi	sp,sp,-920 # 12000 <begin_signature>
   103a0:	00000013          	nop
   103a4:	00000013          	nop
   103a8:	00112423          	sw	ra,8(sp)
   103ac:	00812703          	lw	a4,8(sp)
   103b0:	ddaac3b7          	lui	t2,0xddaac
   103b4:	bcc38393          	addi	t2,t2,-1076 # ddaabbcc <_end+0xdda99b9c>
   103b8:	24771063          	bne	a4,t2,105f8 <fail>
   103bc:	00120213          	addi	tp,tp,1 # 1 <_start-0xffff>
   103c0:	00200293          	li	t0,2
   103c4:	fc5216e3          	bne	tp,t0,10390 <test_14+0x8>

000103c8 <test_15>:
   103c8:	00f00193          	li	gp,15
   103cc:	00000213          	li	tp,0
   103d0:	cddab0b7          	lui	ra,0xcddab
   103d4:	bbc08093          	addi	ra,ra,-1092 # cddaabbc <_end+0xcdd98b8c>
   103d8:	00000013          	nop
   103dc:	00002117          	auipc	sp,0x2
   103e0:	c2410113          	addi	sp,sp,-988 # 12000 <begin_signature>
   103e4:	00112623          	sw	ra,12(sp)
   103e8:	00c12703          	lw	a4,12(sp)
   103ec:	cddab3b7          	lui	t2,0xcddab
   103f0:	bbc38393          	addi	t2,t2,-1092 # cddaabbc <_end+0xcdd98b8c>
   103f4:	20771263          	bne	a4,t2,105f8 <fail>
   103f8:	00120213          	addi	tp,tp,1 # 1 <_start-0xffff>
   103fc:	00200293          	li	t0,2
   10400:	fc5218e3          	bne	tp,t0,103d0 <test_15+0x8>

00010404 <test_16>:
   10404:	01000193          	li	gp,16
   10408:	00000213          	li	tp,0
   1040c:	ccddb0b7          	lui	ra,0xccddb
   10410:	abb08093          	addi	ra,ra,-1349 # ccddaabb <_end+0xccdc8a8b>
   10414:	00000013          	nop
   10418:	00002117          	auipc	sp,0x2
   1041c:	be810113          	addi	sp,sp,-1048 # 12000 <begin_signature>
   10420:	00000013          	nop
   10424:	00112823          	sw	ra,16(sp)
   10428:	01012703          	lw	a4,16(sp)
   1042c:	ccddb3b7          	lui	t2,0xccddb
   10430:	abb38393          	addi	t2,t2,-1349 # ccddaabb <_end+0xccdc8a8b>
   10434:	1c771263          	bne	a4,t2,105f8 <fail>
   10438:	00120213          	addi	tp,tp,1 # 1 <_start-0xffff>
   1043c:	00200293          	li	t0,2
   10440:	fc5216e3          	bne	tp,t0,1040c <test_16+0x8>

00010444 <test_17>:
   10444:	01100193          	li	gp,17
   10448:	00000213          	li	tp,0
   1044c:	bccde0b7          	lui	ra,0xbccde
   10450:	aab08093          	addi	ra,ra,-1365 # bccddaab <_end+0xbcccba7b>
   10454:	00000013          	nop
   10458:	00000013          	nop
   1045c:	00002117          	auipc	sp,0x2
   10460:	ba410113          	addi	sp,sp,-1116 # 12000 <begin_signature>
   10464:	00112a23          	sw	ra,20(sp)
   10468:	01412703          	lw	a4,20(sp)
   1046c:	bccde3b7          	lui	t2,0xbccde
   10470:	aab38393          	addi	t2,t2,-1365 # bccddaab <_end+0xbcccba7b>
   10474:	18771263          	bne	a4,t2,105f8 <fail>
   10478:	00120213          	addi	tp,tp,1 # 1 <_start-0xffff>
   1047c:	00200293          	li	t0,2
   10480:	fc5216e3          	bne	tp,t0,1044c <test_17+0x8>

00010484 <test_18>:
   10484:	01200193          	li	gp,18
   10488:	00000213          	li	tp,0
   1048c:	00002117          	auipc	sp,0x2
   10490:	b7410113          	addi	sp,sp,-1164 # 12000 <begin_signature>
   10494:	001120b7          	lui	ra,0x112
   10498:	23308093          	addi	ra,ra,563 # 112233 <_end+0x100203>
   1049c:	00112023          	sw	ra,0(sp)
   104a0:	00012703          	lw	a4,0(sp)
   104a4:	001123b7          	lui	t2,0x112
   104a8:	23338393          	addi	t2,t2,563 # 112233 <_end+0x100203>
   104ac:	14771663          	bne	a4,t2,105f8 <fail>
   104b0:	00120213          	addi	tp,tp,1 # 1 <_start-0xffff>
   104b4:	00200293          	li	t0,2
   104b8:	fc521ae3          	bne	tp,t0,1048c <test_18+0x8>

000104bc <test_19>:
   104bc:	01300193          	li	gp,19
   104c0:	00000213          	li	tp,0
   104c4:	00002117          	auipc	sp,0x2
   104c8:	b3c10113          	addi	sp,sp,-1220 # 12000 <begin_signature>
   104cc:	300110b7          	lui	ra,0x30011
   104d0:	22308093          	addi	ra,ra,547 # 30011223 <_end+0x2ffff1f3>
   104d4:	00000013          	nop
   104d8:	00112223          	sw	ra,4(sp)
   104dc:	00412703          	lw	a4,4(sp)
   104e0:	300113b7          	lui	t2,0x30011
   104e4:	22338393          	addi	t2,t2,547 # 30011223 <_end+0x2ffff1f3>
   104e8:	10771863          	bne	a4,t2,105f8 <fail>
   104ec:	00120213          	addi	tp,tp,1 # 1 <_start-0xffff>
   104f0:	00200293          	li	t0,2
   104f4:	fc5218e3          	bne	tp,t0,104c4 <test_19+0x8>

000104f8 <test_20>:
   104f8:	01400193          	li	gp,20
   104fc:	00000213          	li	tp,0
   10500:	00002117          	auipc	sp,0x2
   10504:	b0010113          	addi	sp,sp,-1280 # 12000 <begin_signature>
   10508:	330010b7          	lui	ra,0x33001
   1050c:	12208093          	addi	ra,ra,290 # 33001122 <_end+0x32fef0f2>
   10510:	00000013          	nop
   10514:	00000013          	nop
   10518:	00112423          	sw	ra,8(sp)
   1051c:	00812703          	lw	a4,8(sp)
   10520:	330013b7          	lui	t2,0x33001
   10524:	12238393          	addi	t2,t2,290 # 33001122 <_end+0x32fef0f2>
   10528:	0c771863          	bne	a4,t2,105f8 <fail>
   1052c:	00120213          	addi	tp,tp,1 # 1 <_start-0xffff>
   10530:	00200293          	li	t0,2
   10534:	fc5216e3          	bne	tp,t0,10500 <test_20+0x8>

00010538 <test_21>:
   10538:	01500193          	li	gp,21
   1053c:	00000213          	li	tp,0
   10540:	00002117          	auipc	sp,0x2
   10544:	ac010113          	addi	sp,sp,-1344 # 12000 <begin_signature>
   10548:	00000013          	nop
   1054c:	233000b7          	lui	ra,0x23300
   10550:	11208093          	addi	ra,ra,274 # 23300112 <_end+0x232ee0e2>
   10554:	00112623          	sw	ra,12(sp)
   10558:	00c12703          	lw	a4,12(sp)
   1055c:	233003b7          	lui	t2,0x23300
   10560:	11238393          	addi	t2,t2,274 # 23300112 <_end+0x232ee0e2>
   10564:	08771a63          	bne	a4,t2,105f8 <fail>
   10568:	00120213          	addi	tp,tp,1 # 1 <_start-0xffff>
   1056c:	00200293          	li	t0,2
   10570:	fc5218e3          	bne	tp,t0,10540 <test_21+0x8>

00010574 <test_22>:
   10574:	01600193          	li	gp,22
   10578:	00000213          	li	tp,0
   1057c:	00002117          	auipc	sp,0x2
   10580:	a8410113          	addi	sp,sp,-1404 # 12000 <begin_signature>
   10584:	00000013          	nop
   10588:	223300b7          	lui	ra,0x22330
   1058c:	01108093          	addi	ra,ra,17 # 22330011 <_end+0x2231dfe1>
   10590:	00000013          	nop
   10594:	00112823          	sw	ra,16(sp)
   10598:	01012703          	lw	a4,16(sp)
   1059c:	223303b7          	lui	t2,0x22330
   105a0:	01138393          	addi	t2,t2,17 # 22330011 <_end+0x2231dfe1>
   105a4:	04771a63          	bne	a4,t2,105f8 <fail>
   105a8:	00120213          	addi	tp,tp,1 # 1 <_start-0xffff>
   105ac:	00200293          	li	t0,2
   105b0:	fc5216e3          	bne	tp,t0,1057c <test_22+0x8>

000105b4 <test_23>:
   105b4:	01700193          	li	gp,23
   105b8:	00000213          	li	tp,0
   105bc:	00002117          	auipc	sp,0x2
   105c0:	a4410113          	addi	sp,sp,-1468 # 12000 <begin_signature>
   105c4:	00000013          	nop
   105c8:	00000013          	nop
   105cc:	122330b7          	lui	ra,0x12233
   105d0:	00108093          	addi	ra,ra,1 # 12233001 <_end+0x12220fd1>
   105d4:	00112a23          	sw	ra,20(sp)
   105d8:	01412703          	lw	a4,20(sp)
   105dc:	122333b7          	lui	t2,0x12233
   105e0:	00138393          	addi	t2,t2,1 # 12233001 <_end+0x12220fd1>
   105e4:	00771a63          	bne	a4,t2,105f8 <fail>
   105e8:	00120213          	addi	tp,tp,1 # 1 <_start-0xffff>
   105ec:	00200293          	li	t0,2
   105f0:	fc5216e3          	bne	tp,t0,105bc <test_23+0x8>
   105f4:	02301063          	bne	zero,gp,10614 <pass>

000105f8 <fail>:
   105f8:	0ff0000f          	fence
   105fc:	00018063          	beqz	gp,105fc <fail+0x4>
   10600:	00119193          	slli	gp,gp,0x1
   10604:	0011e193          	ori	gp,gp,1
   10608:	05d00893          	li	a7,93
   1060c:	00018513          	mv	a0,gp
   10610:	00000073          	ecall

00010614 <pass>:
   10614:	0ff0000f          	fence
   10618:	00100193          	li	gp,1
   1061c:	05d00893          	li	a7,93
   10620:	00000513          	li	a0,0
   10624:	00000073          	ecall
   10628:	c0001073          	unimp
   1062c:	0000                	unimp
   1062e:	0000                	unimp
   10630:	0000                	unimp
   10632:	0000                	unimp
   10634:	0000                	unimp
   10636:	0000                	unimp
   10638:	0000                	unimp
   1063a:	0000                	unimp
