
rv32ui-p-sh:     file format elf32-littleriscv


Disassembly of section .text.init:

00010000 <_start>:
   10000:	0480006f          	j	10048 <reset_vector>

00010004 <trap_vector>:
   10004:	34202f73          	csrr	t5,mcause
   10008:	00800f93          	li	t6,8
   1000c:	03ff0863          	beq	t5,t6,1003c <write_tohost>
   10010:	00900f93          	li	t6,9
   10014:	03ff0463          	beq	t5,t6,1003c <write_tohost>
   10018:	00b00f93          	li	t6,11
   1001c:	03ff0063          	beq	t5,t6,1003c <write_tohost>
   10020:	00000f13          	li	t5,0
   10024:	000f0463          	beqz	t5,1002c <trap_vector+0x28>
   10028:	000f0067          	jr	t5
   1002c:	34202f73          	csrr	t5,mcause
   10030:	000f5463          	bgez	t5,10038 <handle_exception>
   10034:	0040006f          	j	10038 <handle_exception>

00010038 <handle_exception>:
   10038:	5391e193          	ori	gp,gp,1337

0001003c <write_tohost>:
   1003c:	00001f17          	auipc	t5,0x1
   10040:	fc3f2223          	sw	gp,-60(t5) # 11000 <tohost>
   10044:	ff9ff06f          	j	1003c <write_tohost>

00010048 <reset_vector>:
   10048:	00000093          	li	ra,0
   1004c:	00000113          	li	sp,0
   10050:	00000193          	li	gp,0
   10054:	00000213          	li	tp,0
   10058:	00000293          	li	t0,0
   1005c:	00000313          	li	t1,0
   10060:	00000393          	li	t2,0
   10064:	00000413          	li	s0,0
   10068:	00000493          	li	s1,0
   1006c:	00000513          	li	a0,0
   10070:	00000593          	li	a1,0
   10074:	00000613          	li	a2,0
   10078:	00000693          	li	a3,0
   1007c:	00000713          	li	a4,0
   10080:	00000793          	li	a5,0
   10084:	00000813          	li	a6,0
   10088:	00000893          	li	a7,0
   1008c:	00000913          	li	s2,0
   10090:	00000993          	li	s3,0
   10094:	00000a13          	li	s4,0
   10098:	00000a93          	li	s5,0
   1009c:	00000b13          	li	s6,0
   100a0:	00000b93          	li	s7,0
   100a4:	00000c13          	li	s8,0
   100a8:	00000c93          	li	s9,0
   100ac:	00000d13          	li	s10,0
   100b0:	00000d93          	li	s11,0
   100b4:	00000e13          	li	t3,0
   100b8:	00000e93          	li	t4,0
   100bc:	00000f13          	li	t5,0
   100c0:	00000f93          	li	t6,0
   100c4:	f1402573          	csrr	a0,mhartid
   100c8:	00051063          	bnez	a0,100c8 <reset_vector+0x80>
   100cc:	00000297          	auipc	t0,0x0
   100d0:	01028293          	addi	t0,t0,16 # 100dc <reset_vector+0x94>
   100d4:	30529073          	csrw	mtvec,t0
   100d8:	18005073          	csrwi	satp,0
   100dc:	00000297          	auipc	t0,0x0
   100e0:	02028293          	addi	t0,t0,32 # 100fc <reset_vector+0xb4>
   100e4:	30529073          	csrw	mtvec,t0
   100e8:	800002b7          	lui	t0,0x80000
   100ec:	fff28293          	addi	t0,t0,-1 # 7fffffff <_end+0x7ffedfdf>
   100f0:	3b029073          	csrw	pmpaddr0,t0
   100f4:	01f00293          	li	t0,31
   100f8:	3a029073          	csrw	pmpcfg0,t0
   100fc:	00000297          	auipc	t0,0x0
   10100:	01828293          	addi	t0,t0,24 # 10114 <reset_vector+0xcc>
   10104:	30529073          	csrw	mtvec,t0
   10108:	30205073          	csrwi	medeleg,0
   1010c:	30305073          	csrwi	mideleg,0
   10110:	30405073          	csrwi	mie,0
   10114:	00000193          	li	gp,0
   10118:	00000297          	auipc	t0,0x0
   1011c:	eec28293          	addi	t0,t0,-276 # 10004 <trap_vector>
   10120:	30529073          	csrw	mtvec,t0
   10124:	00100513          	li	a0,1
   10128:	01f51513          	slli	a0,a0,0x1f
   1012c:	00054c63          	bltz	a0,10144 <reset_vector+0xfc>
   10130:	0ff0000f          	fence
   10134:	00100193          	li	gp,1
   10138:	05d00893          	li	a7,93
   1013c:	00000513          	li	a0,0
   10140:	00000073          	ecall
   10144:	00000293          	li	t0,0
   10148:	00028a63          	beqz	t0,1015c <reset_vector+0x114>
   1014c:	10529073          	csrw	stvec,t0
   10150:	0000b2b7          	lui	t0,0xb
   10154:	10928293          	addi	t0,t0,265 # b109 <_start-0x4ef7>
   10158:	30229073          	csrw	medeleg,t0
   1015c:	30005073          	csrwi	mstatus,0
   10160:	00000297          	auipc	t0,0x0
   10164:	01428293          	addi	t0,t0,20 # 10174 <test_2>
   10168:	34129073          	csrw	mepc,t0
   1016c:	f1402573          	csrr	a0,mhartid
   10170:	30200073          	mret

00010174 <test_2>:
   10174:	00002097          	auipc	ra,0x2
   10178:	e8c08093          	addi	ra,ra,-372 # 12000 <begin_signature>
   1017c:	0aa00113          	li	sp,170
   10180:	00209023          	sh	sp,0(ra)
   10184:	00009703          	lh	a4,0(ra)
   10188:	0aa00393          	li	t2,170
   1018c:	00200193          	li	gp,2
   10190:	44771e63          	bne	a4,t2,105ec <fail>

00010194 <test_3>:
   10194:	00002097          	auipc	ra,0x2
   10198:	e6c08093          	addi	ra,ra,-404 # 12000 <begin_signature>
   1019c:	ffffb137          	lui	sp,0xffffb
   101a0:	a0010113          	addi	sp,sp,-1536 # ffffaa00 <_end+0xfffe89e0>
   101a4:	00209123          	sh	sp,2(ra)
   101a8:	00209703          	lh	a4,2(ra)
   101ac:	ffffb3b7          	lui	t2,0xffffb
   101b0:	a0038393          	addi	t2,t2,-1536 # ffffaa00 <_end+0xfffe89e0>
   101b4:	00300193          	li	gp,3
   101b8:	42771a63          	bne	a4,t2,105ec <fail>

000101bc <test_4>:
   101bc:	00002097          	auipc	ra,0x2
   101c0:	e4408093          	addi	ra,ra,-444 # 12000 <begin_signature>
   101c4:	beef1137          	lui	sp,0xbeef1
   101c8:	aa010113          	addi	sp,sp,-1376 # beef0aa0 <_end+0xbeedea80>
   101cc:	00209223          	sh	sp,4(ra)
   101d0:	0040a703          	lw	a4,4(ra)
   101d4:	beef13b7          	lui	t2,0xbeef1
   101d8:	aa038393          	addi	t2,t2,-1376 # beef0aa0 <_end+0xbeedea80>
   101dc:	00400193          	li	gp,4
   101e0:	40771663          	bne	a4,t2,105ec <fail>

000101e4 <test_5>:
   101e4:	00002097          	auipc	ra,0x2
   101e8:	e1c08093          	addi	ra,ra,-484 # 12000 <begin_signature>
   101ec:	ffffa137          	lui	sp,0xffffa
   101f0:	00a10113          	addi	sp,sp,10 # ffffa00a <_end+0xfffe7fea>
   101f4:	00209323          	sh	sp,6(ra)
   101f8:	00609703          	lh	a4,6(ra)
   101fc:	ffffa3b7          	lui	t2,0xffffa
   10200:	00a38393          	addi	t2,t2,10 # ffffa00a <_end+0xfffe7fea>
   10204:	00500193          	li	gp,5
   10208:	3e771263          	bne	a4,t2,105ec <fail>

0001020c <test_6>:
   1020c:	00002097          	auipc	ra,0x2
   10210:	e0208093          	addi	ra,ra,-510 # 1200e <tdat8>
   10214:	0aa00113          	li	sp,170
   10218:	fe209d23          	sh	sp,-6(ra)
   1021c:	ffa09703          	lh	a4,-6(ra)
   10220:	0aa00393          	li	t2,170
   10224:	00600193          	li	gp,6
   10228:	3c771263          	bne	a4,t2,105ec <fail>

0001022c <test_7>:
   1022c:	00002097          	auipc	ra,0x2
   10230:	de208093          	addi	ra,ra,-542 # 1200e <tdat8>
   10234:	ffffb137          	lui	sp,0xffffb
   10238:	a0010113          	addi	sp,sp,-1536 # ffffaa00 <_end+0xfffe89e0>
   1023c:	fe209e23          	sh	sp,-4(ra)
   10240:	ffc09703          	lh	a4,-4(ra)
   10244:	ffffb3b7          	lui	t2,0xffffb
   10248:	a0038393          	addi	t2,t2,-1536 # ffffaa00 <_end+0xfffe89e0>
   1024c:	00700193          	li	gp,7
   10250:	38771e63          	bne	a4,t2,105ec <fail>

00010254 <test_8>:
   10254:	00002097          	auipc	ra,0x2
   10258:	dba08093          	addi	ra,ra,-582 # 1200e <tdat8>
   1025c:	00001137          	lui	sp,0x1
   10260:	aa010113          	addi	sp,sp,-1376 # aa0 <_start-0xf560>
   10264:	fe209f23          	sh	sp,-2(ra)
   10268:	ffe09703          	lh	a4,-2(ra)
   1026c:	000013b7          	lui	t2,0x1
   10270:	aa038393          	addi	t2,t2,-1376 # aa0 <_start-0xf560>
   10274:	00800193          	li	gp,8
   10278:	36771a63          	bne	a4,t2,105ec <fail>

0001027c <test_9>:
   1027c:	00002097          	auipc	ra,0x2
   10280:	d9208093          	addi	ra,ra,-622 # 1200e <tdat8>
   10284:	ffffa137          	lui	sp,0xffffa
   10288:	00a10113          	addi	sp,sp,10 # ffffa00a <_end+0xfffe7fea>
   1028c:	00209023          	sh	sp,0(ra)
   10290:	00009703          	lh	a4,0(ra)
   10294:	ffffa3b7          	lui	t2,0xffffa
   10298:	00a38393          	addi	t2,t2,10 # ffffa00a <_end+0xfffe7fea>
   1029c:	00900193          	li	gp,9
   102a0:	34771663          	bne	a4,t2,105ec <fail>

000102a4 <test_10>:
   102a4:	00002097          	auipc	ra,0x2
   102a8:	d6c08093          	addi	ra,ra,-660 # 12010 <tdat9>
   102ac:	12345137          	lui	sp,0x12345
   102b0:	67810113          	addi	sp,sp,1656 # 12345678 <_end+0x12333658>
   102b4:	fe008213          	addi	tp,ra,-32
   102b8:	02221023          	sh	sp,32(tp) # 20 <_start-0xffe0>
   102bc:	00009283          	lh	t0,0(ra)
   102c0:	000053b7          	lui	t2,0x5
   102c4:	67838393          	addi	t2,t2,1656 # 5678 <_start-0xa988>
   102c8:	00a00193          	li	gp,10
   102cc:	32729063          	bne	t0,t2,105ec <fail>

000102d0 <test_11>:
   102d0:	00002097          	auipc	ra,0x2
   102d4:	d4008093          	addi	ra,ra,-704 # 12010 <tdat9>
   102d8:	00003137          	lui	sp,0x3
   102dc:	09810113          	addi	sp,sp,152 # 3098 <_start-0xcf68>
   102e0:	ffb08093          	addi	ra,ra,-5
   102e4:	002093a3          	sh	sp,7(ra)
   102e8:	00002217          	auipc	tp,0x2
   102ec:	d2a20213          	addi	tp,tp,-726 # 12012 <tdat10>
   102f0:	00021283          	lh	t0,0(tp) # 0 <_start-0x10000>
   102f4:	000033b7          	lui	t2,0x3
   102f8:	09838393          	addi	t2,t2,152 # 3098 <_start-0xcf68>
   102fc:	00b00193          	li	gp,11
   10300:	2e729663          	bne	t0,t2,105ec <fail>

00010304 <test_12>:
   10304:	00c00193          	li	gp,12
   10308:	00000213          	li	tp,0
   1030c:	ffffd0b7          	lui	ra,0xffffd
   10310:	cdd08093          	addi	ra,ra,-803 # ffffccdd <_end+0xfffeacbd>
   10314:	00002117          	auipc	sp,0x2
   10318:	cec10113          	addi	sp,sp,-788 # 12000 <begin_signature>
   1031c:	00111023          	sh	ra,0(sp)
   10320:	00011703          	lh	a4,0(sp)
   10324:	ffffd3b7          	lui	t2,0xffffd
   10328:	cdd38393          	addi	t2,t2,-803 # ffffccdd <_end+0xfffeacbd>
   1032c:	2c771063          	bne	a4,t2,105ec <fail>
   10330:	00120213          	addi	tp,tp,1 # 1 <_start-0xffff>
   10334:	00200293          	li	t0,2
   10338:	fc521ae3          	bne	tp,t0,1030c <test_12+0x8>

0001033c <test_13>:
   1033c:	00d00193          	li	gp,13
   10340:	00000213          	li	tp,0
   10344:	ffffc0b7          	lui	ra,0xffffc
   10348:	ccd08093          	addi	ra,ra,-819 # ffffbccd <_end+0xfffe9cad>
   1034c:	00002117          	auipc	sp,0x2
   10350:	cb410113          	addi	sp,sp,-844 # 12000 <begin_signature>
   10354:	00000013          	nop
   10358:	00111123          	sh	ra,2(sp)
   1035c:	00211703          	lh	a4,2(sp)
   10360:	ffffc3b7          	lui	t2,0xffffc
   10364:	ccd38393          	addi	t2,t2,-819 # ffffbccd <_end+0xfffe9cad>
   10368:	28771263          	bne	a4,t2,105ec <fail>
   1036c:	00120213          	addi	tp,tp,1 # 1 <_start-0xffff>
   10370:	00200293          	li	t0,2
   10374:	fc5218e3          	bne	tp,t0,10344 <test_13+0x8>

00010378 <test_14>:
   10378:	00e00193          	li	gp,14
   1037c:	00000213          	li	tp,0
   10380:	ffffc0b7          	lui	ra,0xffffc
   10384:	bcc08093          	addi	ra,ra,-1076 # ffffbbcc <_end+0xfffe9bac>
   10388:	00002117          	auipc	sp,0x2
   1038c:	c7810113          	addi	sp,sp,-904 # 12000 <begin_signature>
   10390:	00000013          	nop
   10394:	00000013          	nop
   10398:	00111223          	sh	ra,4(sp)
   1039c:	00411703          	lh	a4,4(sp)
   103a0:	ffffc3b7          	lui	t2,0xffffc
   103a4:	bcc38393          	addi	t2,t2,-1076 # ffffbbcc <_end+0xfffe9bac>
   103a8:	24771263          	bne	a4,t2,105ec <fail>
   103ac:	00120213          	addi	tp,tp,1 # 1 <_start-0xffff>
   103b0:	00200293          	li	t0,2
   103b4:	fc5216e3          	bne	tp,t0,10380 <test_14+0x8>

000103b8 <test_15>:
   103b8:	00f00193          	li	gp,15
   103bc:	00000213          	li	tp,0
   103c0:	ffffb0b7          	lui	ra,0xffffb
   103c4:	bbc08093          	addi	ra,ra,-1092 # ffffabbc <_end+0xfffe8b9c>
   103c8:	00000013          	nop
   103cc:	00002117          	auipc	sp,0x2
   103d0:	c3410113          	addi	sp,sp,-972 # 12000 <begin_signature>
   103d4:	00111323          	sh	ra,6(sp)
   103d8:	00611703          	lh	a4,6(sp)
   103dc:	ffffb3b7          	lui	t2,0xffffb
   103e0:	bbc38393          	addi	t2,t2,-1092 # ffffabbc <_end+0xfffe8b9c>
   103e4:	20771463          	bne	a4,t2,105ec <fail>
   103e8:	00120213          	addi	tp,tp,1 # 1 <_start-0xffff>
   103ec:	00200293          	li	t0,2
   103f0:	fc5218e3          	bne	tp,t0,103c0 <test_15+0x8>

000103f4 <test_16>:
   103f4:	01000193          	li	gp,16
   103f8:	00000213          	li	tp,0
   103fc:	ffffb0b7          	lui	ra,0xffffb
   10400:	abb08093          	addi	ra,ra,-1349 # ffffaabb <_end+0xfffe8a9b>
   10404:	00000013          	nop
   10408:	00002117          	auipc	sp,0x2
   1040c:	bf810113          	addi	sp,sp,-1032 # 12000 <begin_signature>
   10410:	00000013          	nop
   10414:	00111423          	sh	ra,8(sp)
   10418:	00811703          	lh	a4,8(sp)
   1041c:	ffffb3b7          	lui	t2,0xffffb
   10420:	abb38393          	addi	t2,t2,-1349 # ffffaabb <_end+0xfffe8a9b>
   10424:	1c771463          	bne	a4,t2,105ec <fail>
   10428:	00120213          	addi	tp,tp,1 # 1 <_start-0xffff>
   1042c:	00200293          	li	t0,2
   10430:	fc5216e3          	bne	tp,t0,103fc <test_16+0x8>

00010434 <test_17>:
   10434:	01100193          	li	gp,17
   10438:	00000213          	li	tp,0
   1043c:	ffffe0b7          	lui	ra,0xffffe
   10440:	aab08093          	addi	ra,ra,-1365 # ffffdaab <_end+0xfffeba8b>
   10444:	00000013          	nop
   10448:	00000013          	nop
   1044c:	00002117          	auipc	sp,0x2
   10450:	bb410113          	addi	sp,sp,-1100 # 12000 <begin_signature>
   10454:	00111523          	sh	ra,10(sp)
   10458:	00a11703          	lh	a4,10(sp)
   1045c:	ffffe3b7          	lui	t2,0xffffe
   10460:	aab38393          	addi	t2,t2,-1365 # ffffdaab <_end+0xfffeba8b>
   10464:	18771463          	bne	a4,t2,105ec <fail>
   10468:	00120213          	addi	tp,tp,1 # 1 <_start-0xffff>
   1046c:	00200293          	li	t0,2
   10470:	fc5216e3          	bne	tp,t0,1043c <test_17+0x8>

00010474 <test_18>:
   10474:	01200193          	li	gp,18
   10478:	00000213          	li	tp,0
   1047c:	00002117          	auipc	sp,0x2
   10480:	b8410113          	addi	sp,sp,-1148 # 12000 <begin_signature>
   10484:	000020b7          	lui	ra,0x2
   10488:	23308093          	addi	ra,ra,563 # 2233 <_start-0xddcd>
   1048c:	00111023          	sh	ra,0(sp)
   10490:	00011703          	lh	a4,0(sp)
   10494:	000023b7          	lui	t2,0x2
   10498:	23338393          	addi	t2,t2,563 # 2233 <_start-0xddcd>
   1049c:	14771863          	bne	a4,t2,105ec <fail>
   104a0:	00120213          	addi	tp,tp,1 # 1 <_start-0xffff>
   104a4:	00200293          	li	t0,2
   104a8:	fc521ae3          	bne	tp,t0,1047c <test_18+0x8>

000104ac <test_19>:
   104ac:	01300193          	li	gp,19
   104b0:	00000213          	li	tp,0
   104b4:	00002117          	auipc	sp,0x2
   104b8:	b4c10113          	addi	sp,sp,-1204 # 12000 <begin_signature>
   104bc:	000010b7          	lui	ra,0x1
   104c0:	22308093          	addi	ra,ra,547 # 1223 <_start-0xeddd>
   104c4:	00000013          	nop
   104c8:	00111123          	sh	ra,2(sp)
   104cc:	00211703          	lh	a4,2(sp)
   104d0:	000013b7          	lui	t2,0x1
   104d4:	22338393          	addi	t2,t2,547 # 1223 <_start-0xeddd>
   104d8:	10771a63          	bne	a4,t2,105ec <fail>
   104dc:	00120213          	addi	tp,tp,1 # 1 <_start-0xffff>
   104e0:	00200293          	li	t0,2
   104e4:	fc5218e3          	bne	tp,t0,104b4 <test_19+0x8>

000104e8 <test_20>:
   104e8:	01400193          	li	gp,20
   104ec:	00000213          	li	tp,0
   104f0:	00002117          	auipc	sp,0x2
   104f4:	b1010113          	addi	sp,sp,-1264 # 12000 <begin_signature>
   104f8:	000010b7          	lui	ra,0x1
   104fc:	12208093          	addi	ra,ra,290 # 1122 <_start-0xeede>
   10500:	00000013          	nop
   10504:	00000013          	nop
   10508:	00111223          	sh	ra,4(sp)
   1050c:	00411703          	lh	a4,4(sp)
   10510:	000013b7          	lui	t2,0x1
   10514:	12238393          	addi	t2,t2,290 # 1122 <_start-0xeede>
   10518:	0c771a63          	bne	a4,t2,105ec <fail>
   1051c:	00120213          	addi	tp,tp,1 # 1 <_start-0xffff>
   10520:	00200293          	li	t0,2
   10524:	fc5216e3          	bne	tp,t0,104f0 <test_20+0x8>

00010528 <test_21>:
   10528:	01500193          	li	gp,21
   1052c:	00000213          	li	tp,0
   10530:	00002117          	auipc	sp,0x2
   10534:	ad010113          	addi	sp,sp,-1328 # 12000 <begin_signature>
   10538:	00000013          	nop
   1053c:	11200093          	li	ra,274
   10540:	00111323          	sh	ra,6(sp)
   10544:	00611703          	lh	a4,6(sp)
   10548:	11200393          	li	t2,274
   1054c:	0a771063          	bne	a4,t2,105ec <fail>
   10550:	00120213          	addi	tp,tp,1 # 1 <_start-0xffff>
   10554:	00200293          	li	t0,2
   10558:	fc521ce3          	bne	tp,t0,10530 <test_21+0x8>

0001055c <test_22>:
   1055c:	01600193          	li	gp,22
   10560:	00000213          	li	tp,0
   10564:	00002117          	auipc	sp,0x2
   10568:	a9c10113          	addi	sp,sp,-1380 # 12000 <begin_signature>
   1056c:	00000013          	nop
   10570:	01100093          	li	ra,17
   10574:	00000013          	nop
   10578:	00111423          	sh	ra,8(sp)
   1057c:	00811703          	lh	a4,8(sp)
   10580:	01100393          	li	t2,17
   10584:	06771463          	bne	a4,t2,105ec <fail>
   10588:	00120213          	addi	tp,tp,1 # 1 <_start-0xffff>
   1058c:	00200293          	li	t0,2
   10590:	fc521ae3          	bne	tp,t0,10564 <test_22+0x8>

00010594 <test_23>:
   10594:	01700193          	li	gp,23
   10598:	00000213          	li	tp,0
   1059c:	00002117          	auipc	sp,0x2
   105a0:	a6410113          	addi	sp,sp,-1436 # 12000 <begin_signature>
   105a4:	00000013          	nop
   105a8:	00000013          	nop
   105ac:	000030b7          	lui	ra,0x3
   105b0:	00108093          	addi	ra,ra,1 # 3001 <_start-0xcfff>
   105b4:	00111523          	sh	ra,10(sp)
   105b8:	00a11703          	lh	a4,10(sp)
   105bc:	000033b7          	lui	t2,0x3
   105c0:	00138393          	addi	t2,t2,1 # 3001 <_start-0xcfff>
   105c4:	02771463          	bne	a4,t2,105ec <fail>
   105c8:	00120213          	addi	tp,tp,1 # 1 <_start-0xffff>
   105cc:	00200293          	li	t0,2
   105d0:	fc5216e3          	bne	tp,t0,1059c <test_23+0x8>
   105d4:	0000c537          	lui	a0,0xc
   105d8:	eef50513          	addi	a0,a0,-273 # beef <_start-0x4111>
   105dc:	00002597          	auipc	a1,0x2
   105e0:	a2458593          	addi	a1,a1,-1500 # 12000 <begin_signature>
   105e4:	00a59323          	sh	a0,6(a1)
   105e8:	02301063          	bne	zero,gp,10608 <pass>

000105ec <fail>:
   105ec:	0ff0000f          	fence
   105f0:	00018063          	beqz	gp,105f0 <fail+0x4>
   105f4:	00119193          	slli	gp,gp,0x1
   105f8:	0011e193          	ori	gp,gp,1
   105fc:	05d00893          	li	a7,93
   10600:	00018513          	mv	a0,gp
   10604:	00000073          	ecall

00010608 <pass>:
   10608:	0ff0000f          	fence
   1060c:	00100193          	li	gp,1
   10610:	05d00893          	li	a7,93
   10614:	00000513          	li	a0,0
   10618:	00000073          	ecall
   1061c:	c0001073          	unimp
   10620:	0000                	unimp
   10622:	0000                	unimp
   10624:	0000                	unimp
   10626:	0000                	unimp
   10628:	0000                	unimp
   1062a:	0000                	unimp
   1062c:	0000                	unimp
   1062e:	0000                	unimp
   10630:	0000                	unimp
   10632:	0000                	unimp
   10634:	0000                	unimp
   10636:	0000                	unimp
   10638:	0000                	unimp
   1063a:	0000                	unimp
