
rv32uf-p-move:     file format elf32-littleriscv


Disassembly of section .text.init:

00010000 <_start>:
   10000:	0480006f          	j	10048 <reset_vector>

00010004 <trap_vector>:
   10004:	34202f73          	csrr	t5,mcause
   10008:	00800f93          	li	t6,8
   1000c:	03ff0863          	beq	t5,t6,1003c <write_tohost>
   10010:	00900f93          	li	t6,9
   10014:	03ff0463          	beq	t5,t6,1003c <write_tohost>
   10018:	00b00f93          	li	t6,11
   1001c:	03ff0063          	beq	t5,t6,1003c <write_tohost>
   10020:	00000f13          	li	t5,0
   10024:	000f0463          	beqz	t5,1002c <trap_vector+0x28>
   10028:	000f0067          	jr	t5
   1002c:	34202f73          	csrr	t5,mcause
   10030:	000f5463          	bgez	t5,10038 <handle_exception>
   10034:	0040006f          	j	10038 <handle_exception>

00010038 <handle_exception>:
   10038:	5391e193          	ori	gp,gp,1337

0001003c <write_tohost>:
   1003c:	00001f17          	auipc	t5,0x1
   10040:	fc3f2223          	sw	gp,-60(t5) # 11000 <tohost>
   10044:	ff9ff06f          	j	1003c <write_tohost>

00010048 <reset_vector>:
   10048:	00000093          	li	ra,0
   1004c:	00000113          	li	sp,0
   10050:	00000193          	li	gp,0
   10054:	00000213          	li	tp,0
   10058:	00000293          	li	t0,0
   1005c:	00000313          	li	t1,0
   10060:	00000393          	li	t2,0
   10064:	00000413          	li	s0,0
   10068:	00000493          	li	s1,0
   1006c:	00000513          	li	a0,0
   10070:	00000593          	li	a1,0
   10074:	00000613          	li	a2,0
   10078:	00000693          	li	a3,0
   1007c:	00000713          	li	a4,0
   10080:	00000793          	li	a5,0
   10084:	00000813          	li	a6,0
   10088:	00000893          	li	a7,0
   1008c:	00000913          	li	s2,0
   10090:	00000993          	li	s3,0
   10094:	00000a13          	li	s4,0
   10098:	00000a93          	li	s5,0
   1009c:	00000b13          	li	s6,0
   100a0:	00000b93          	li	s7,0
   100a4:	00000c13          	li	s8,0
   100a8:	00000c93          	li	s9,0
   100ac:	00000d13          	li	s10,0
   100b0:	00000d93          	li	s11,0
   100b4:	00000e13          	li	t3,0
   100b8:	00000e93          	li	t4,0
   100bc:	00000f13          	li	t5,0
   100c0:	00000f93          	li	t6,0
   100c4:	f1402573          	csrr	a0,mhartid
   100c8:	00051063          	bnez	a0,100c8 <reset_vector+0x80>
   100cc:	00000297          	auipc	t0,0x0
   100d0:	01028293          	addi	t0,t0,16 # 100dc <reset_vector+0x94>
   100d4:	30529073          	csrw	mtvec,t0
   100d8:	18005073          	csrwi	satp,0
   100dc:	00000297          	auipc	t0,0x0
   100e0:	02028293          	addi	t0,t0,32 # 100fc <reset_vector+0xb4>
   100e4:	30529073          	csrw	mtvec,t0
   100e8:	800002b7          	lui	t0,0x80000
   100ec:	fff28293          	addi	t0,t0,-1 # 7fffffff <_end+0x7ffedfff>
   100f0:	3b029073          	csrw	pmpaddr0,t0
   100f4:	01f00293          	li	t0,31
   100f8:	3a029073          	csrw	pmpcfg0,t0
   100fc:	00000297          	auipc	t0,0x0
   10100:	01828293          	addi	t0,t0,24 # 10114 <reset_vector+0xcc>
   10104:	30529073          	csrw	mtvec,t0
   10108:	30205073          	csrwi	medeleg,0
   1010c:	30305073          	csrwi	mideleg,0
   10110:	30405073          	csrwi	mie,0
   10114:	00000193          	li	gp,0
   10118:	00000297          	auipc	t0,0x0
   1011c:	eec28293          	addi	t0,t0,-276 # 10004 <trap_vector>
   10120:	30529073          	csrw	mtvec,t0
   10124:	00100513          	li	a0,1
   10128:	01f51513          	slli	a0,a0,0x1f
   1012c:	00054c63          	bltz	a0,10144 <reset_vector+0xfc>
   10130:	0ff0000f          	fence
   10134:	00100193          	li	gp,1
   10138:	05d00893          	li	a7,93
   1013c:	00000513          	li	a0,0
   10140:	00000073          	ecall
   10144:	00000293          	li	t0,0
   10148:	00028a63          	beqz	t0,1015c <reset_vector+0x114>
   1014c:	10529073          	csrw	stvec,t0
   10150:	0000b2b7          	lui	t0,0xb
   10154:	10928293          	addi	t0,t0,265 # b109 <_start-0x4ef7>
   10158:	30229073          	csrw	medeleg,t0
   1015c:	30005073          	csrwi	mstatus,0
   10160:	00002537          	lui	a0,0x2
   10164:	30052073          	csrs	mstatus,a0
   10168:	00305073          	csrwi	fcsr,0
   1016c:	00000297          	auipc	t0,0x0
   10170:	01428293          	addi	t0,t0,20 # 10180 <test_2>
   10174:	34129073          	csrw	mepc,t0
   10178:	f1402573          	csrr	a0,mhartid
   1017c:	30200073          	mret

00010180 <test_2>:
   10180:	0030d073          	csrwi	fcsr,1
   10184:	00001537          	lui	a0,0x1
   10188:	23450513          	addi	a0,a0,564 # 1234 <_start-0xedcc>
   1018c:	003515f3          	fscsr	a1,a0
   10190:	00100393          	li	t2,1
   10194:	00200193          	li	gp,2
   10198:	26759c63          	bne	a1,t2,10410 <fail>

0001019c <test_3>:
   1019c:	00302573          	frcsr	a0
   101a0:	03400393          	li	t2,52
   101a4:	00300193          	li	gp,3
   101a8:	26751463          	bne	a0,t2,10410 <fail>

000101ac <test_4>:
   101ac:	00102573          	frflags	a0
   101b0:	01400393          	li	t2,20
   101b4:	00400193          	li	gp,4
   101b8:	24751c63          	bne	a0,t2,10410 <fail>

000101bc <test_5>:
   101bc:	00215573          	fsrmi	a0,2
   101c0:	00100393          	li	t2,1
   101c4:	00500193          	li	gp,5
   101c8:	24751463          	bne	a0,t2,10410 <fail>

000101cc <test_6>:
   101cc:	00302573          	frcsr	a0
   101d0:	05400393          	li	t2,84
   101d4:	00600193          	li	gp,6
   101d8:	22751c63          	bne	a0,t2,10410 <fail>

000101dc <test_7>:
   101dc:	00127573          	csrrci	a0,fflags,4
   101e0:	01400393          	li	t2,20
   101e4:	00700193          	li	gp,7
   101e8:	22751463          	bne	a0,t2,10410 <fail>

000101ec <test_8>:
   101ec:	00302573          	frcsr	a0
   101f0:	05000393          	li	t2,80
   101f4:	00800193          	li	gp,8
   101f8:	20751c63          	bne	a0,t2,10410 <fail>

000101fc <test_10>:
   101fc:	123455b7          	lui	a1,0x12345
   10200:	67858593          	addi	a1,a1,1656 # 12345678 <_end+0x12333678>
   10204:	00000613          	li	a2,0
   10208:	f00580d3          	fmv.w.x	ft1,a1
   1020c:	f0060153          	fmv.w.x	ft2,a2
   10210:	20208053          	fsgnj.s	ft0,ft1,ft2
   10214:	e0000553          	fmv.x.w	a0,ft0
   10218:	123453b7          	lui	t2,0x12345
   1021c:	67838393          	addi	t2,t2,1656 # 12345678 <_end+0x12333678>
   10220:	00a00193          	li	gp,10
   10224:	1e751663          	bne	a0,t2,10410 <fail>

00010228 <test_11>:
   10228:	123455b7          	lui	a1,0x12345
   1022c:	67858593          	addi	a1,a1,1656 # 12345678 <_end+0x12333678>
   10230:	fff00613          	li	a2,-1
   10234:	f00580d3          	fmv.w.x	ft1,a1
   10238:	f0060153          	fmv.w.x	ft2,a2
   1023c:	20208053          	fsgnj.s	ft0,ft1,ft2
   10240:	e0000553          	fmv.x.w	a0,ft0
   10244:	923453b7          	lui	t2,0x92345
   10248:	67838393          	addi	t2,t2,1656 # 92345678 <_end+0x92333678>
   1024c:	00b00193          	li	gp,11
   10250:	1c751063          	bne	a0,t2,10410 <fail>

00010254 <test_12>:
   10254:	923455b7          	lui	a1,0x92345
   10258:	67858593          	addi	a1,a1,1656 # 92345678 <_end+0x92333678>
   1025c:	00000613          	li	a2,0
   10260:	f00580d3          	fmv.w.x	ft1,a1
   10264:	f0060153          	fmv.w.x	ft2,a2
   10268:	20208053          	fsgnj.s	ft0,ft1,ft2
   1026c:	e0000553          	fmv.x.w	a0,ft0
   10270:	123453b7          	lui	t2,0x12345
   10274:	67838393          	addi	t2,t2,1656 # 12345678 <_end+0x12333678>
   10278:	00c00193          	li	gp,12
   1027c:	18751a63          	bne	a0,t2,10410 <fail>

00010280 <test_13>:
   10280:	923455b7          	lui	a1,0x92345
   10284:	67858593          	addi	a1,a1,1656 # 92345678 <_end+0x92333678>
   10288:	fff00613          	li	a2,-1
   1028c:	f00580d3          	fmv.w.x	ft1,a1
   10290:	f0060153          	fmv.w.x	ft2,a2
   10294:	20208053          	fsgnj.s	ft0,ft1,ft2
   10298:	e0000553          	fmv.x.w	a0,ft0
   1029c:	923453b7          	lui	t2,0x92345
   102a0:	67838393          	addi	t2,t2,1656 # 92345678 <_end+0x92333678>
   102a4:	00d00193          	li	gp,13
   102a8:	16751463          	bne	a0,t2,10410 <fail>

000102ac <test_20>:
   102ac:	123455b7          	lui	a1,0x12345
   102b0:	67858593          	addi	a1,a1,1656 # 12345678 <_end+0x12333678>
   102b4:	00000613          	li	a2,0
   102b8:	f00580d3          	fmv.w.x	ft1,a1
   102bc:	f0060153          	fmv.w.x	ft2,a2
   102c0:	20209053          	fsgnjn.s	ft0,ft1,ft2
   102c4:	e0000553          	fmv.x.w	a0,ft0
   102c8:	923453b7          	lui	t2,0x92345
   102cc:	67838393          	addi	t2,t2,1656 # 92345678 <_end+0x92333678>
   102d0:	01400193          	li	gp,20
   102d4:	12751e63          	bne	a0,t2,10410 <fail>

000102d8 <test_21>:
   102d8:	123455b7          	lui	a1,0x12345
   102dc:	67858593          	addi	a1,a1,1656 # 12345678 <_end+0x12333678>
   102e0:	fff00613          	li	a2,-1
   102e4:	f00580d3          	fmv.w.x	ft1,a1
   102e8:	f0060153          	fmv.w.x	ft2,a2
   102ec:	20209053          	fsgnjn.s	ft0,ft1,ft2
   102f0:	e0000553          	fmv.x.w	a0,ft0
   102f4:	123453b7          	lui	t2,0x12345
   102f8:	67838393          	addi	t2,t2,1656 # 12345678 <_end+0x12333678>
   102fc:	01500193          	li	gp,21
   10300:	10751863          	bne	a0,t2,10410 <fail>

00010304 <test_22>:
   10304:	923455b7          	lui	a1,0x92345
   10308:	67858593          	addi	a1,a1,1656 # 92345678 <_end+0x92333678>
   1030c:	00000613          	li	a2,0
   10310:	f00580d3          	fmv.w.x	ft1,a1
   10314:	f0060153          	fmv.w.x	ft2,a2
   10318:	20209053          	fsgnjn.s	ft0,ft1,ft2
   1031c:	e0000553          	fmv.x.w	a0,ft0
   10320:	923453b7          	lui	t2,0x92345
   10324:	67838393          	addi	t2,t2,1656 # 92345678 <_end+0x92333678>
   10328:	01600193          	li	gp,22
   1032c:	0e751263          	bne	a0,t2,10410 <fail>

00010330 <test_23>:
   10330:	923455b7          	lui	a1,0x92345
   10334:	67858593          	addi	a1,a1,1656 # 92345678 <_end+0x92333678>
   10338:	fff00613          	li	a2,-1
   1033c:	f00580d3          	fmv.w.x	ft1,a1
   10340:	f0060153          	fmv.w.x	ft2,a2
   10344:	20209053          	fsgnjn.s	ft0,ft1,ft2
   10348:	e0000553          	fmv.x.w	a0,ft0
   1034c:	123453b7          	lui	t2,0x12345
   10350:	67838393          	addi	t2,t2,1656 # 12345678 <_end+0x12333678>
   10354:	01700193          	li	gp,23
   10358:	0a751c63          	bne	a0,t2,10410 <fail>

0001035c <test_30>:
   1035c:	123455b7          	lui	a1,0x12345
   10360:	67858593          	addi	a1,a1,1656 # 12345678 <_end+0x12333678>
   10364:	00000613          	li	a2,0
   10368:	f00580d3          	fmv.w.x	ft1,a1
   1036c:	f0060153          	fmv.w.x	ft2,a2
   10370:	2020a053          	fsgnjx.s	ft0,ft1,ft2
   10374:	e0000553          	fmv.x.w	a0,ft0
   10378:	123453b7          	lui	t2,0x12345
   1037c:	67838393          	addi	t2,t2,1656 # 12345678 <_end+0x12333678>
   10380:	01e00193          	li	gp,30
   10384:	08751663          	bne	a0,t2,10410 <fail>

00010388 <test_31>:
   10388:	123455b7          	lui	a1,0x12345
   1038c:	67858593          	addi	a1,a1,1656 # 12345678 <_end+0x12333678>
   10390:	fff00613          	li	a2,-1
   10394:	f00580d3          	fmv.w.x	ft1,a1
   10398:	f0060153          	fmv.w.x	ft2,a2
   1039c:	2020a053          	fsgnjx.s	ft0,ft1,ft2
   103a0:	e0000553          	fmv.x.w	a0,ft0
   103a4:	923453b7          	lui	t2,0x92345
   103a8:	67838393          	addi	t2,t2,1656 # 92345678 <_end+0x92333678>
   103ac:	01f00193          	li	gp,31
   103b0:	06751063          	bne	a0,t2,10410 <fail>

000103b4 <test_32>:
   103b4:	923455b7          	lui	a1,0x92345
   103b8:	67858593          	addi	a1,a1,1656 # 92345678 <_end+0x92333678>
   103bc:	00000613          	li	a2,0
   103c0:	f00580d3          	fmv.w.x	ft1,a1
   103c4:	f0060153          	fmv.w.x	ft2,a2
   103c8:	2020a053          	fsgnjx.s	ft0,ft1,ft2
   103cc:	e0000553          	fmv.x.w	a0,ft0
   103d0:	923453b7          	lui	t2,0x92345
   103d4:	67838393          	addi	t2,t2,1656 # 92345678 <_end+0x92333678>
   103d8:	02000193          	li	gp,32
   103dc:	02751a63          	bne	a0,t2,10410 <fail>

000103e0 <test_33>:
   103e0:	923455b7          	lui	a1,0x92345
   103e4:	67858593          	addi	a1,a1,1656 # 92345678 <_end+0x92333678>
   103e8:	fff00613          	li	a2,-1
   103ec:	f00580d3          	fmv.w.x	ft1,a1
   103f0:	f0060153          	fmv.w.x	ft2,a2
   103f4:	2020a053          	fsgnjx.s	ft0,ft1,ft2
   103f8:	e0000553          	fmv.x.w	a0,ft0
   103fc:	123453b7          	lui	t2,0x12345
   10400:	67838393          	addi	t2,t2,1656 # 12345678 <_end+0x12333678>
   10404:	02100193          	li	gp,33
   10408:	00751463          	bne	a0,t2,10410 <fail>
   1040c:	02301063          	bne	zero,gp,1042c <pass>

00010410 <fail>:
   10410:	0ff0000f          	fence
   10414:	00018063          	beqz	gp,10414 <fail+0x4>
   10418:	00119193          	slli	gp,gp,0x1
   1041c:	0011e193          	ori	gp,gp,1
   10420:	05d00893          	li	a7,93
   10424:	00018513          	mv	a0,gp
   10428:	00000073          	ecall

0001042c <pass>:
   1042c:	0ff0000f          	fence
   10430:	00100193          	li	gp,1
   10434:	05d00893          	li	a7,93
   10438:	00000513          	li	a0,0
   1043c:	00000073          	ecall
   10440:	c0001073          	unimp
   10444:	0000                	unimp
   10446:	0000                	unimp
   10448:	0000                	unimp
   1044a:	0000                	unimp
   1044c:	0000                	unimp
   1044e:	0000                	unimp
   10450:	0000                	unimp
   10452:	0000                	unimp
   10454:	0000                	unimp
   10456:	0000                	unimp
   10458:	0000                	unimp
   1045a:	0000                	unimp
   1045c:	0000                	unimp
   1045e:	0000                	unimp
   10460:	0000                	unimp
   10462:	0000                	unimp
   10464:	0000                	unimp
   10466:	0000                	unimp
   10468:	0000                	unimp
   1046a:	0000                	unimp
   1046c:	0000                	unimp
   1046e:	0000                	unimp
   10470:	0000                	unimp
   10472:	0000                	unimp
   10474:	0000                	unimp
   10476:	0000                	unimp
   10478:	0000                	unimp
   1047a:	0000                	unimp
