
rv64ui-p-sra:     file format elf64-littleriscv


Disassembly of section .text.init:

0000000000010000 <_start>:
   10000:	0480006f          	j	10048 <reset_vector>

0000000000010004 <trap_vector>:
   10004:	34202f73          	csrr	t5,mcause
   10008:	00800f93          	li	t6,8
   1000c:	03ff0863          	beq	t5,t6,1003c <write_tohost>
   10010:	00900f93          	li	t6,9
   10014:	03ff0463          	beq	t5,t6,1003c <write_tohost>
   10018:	00b00f93          	li	t6,11
   1001c:	03ff0063          	beq	t5,t6,1003c <write_tohost>
   10020:	00000f13          	li	t5,0
   10024:	000f0463          	beqz	t5,1002c <trap_vector+0x28>
   10028:	000f0067          	jr	t5
   1002c:	34202f73          	csrr	t5,mcause
   10030:	000f5463          	bgez	t5,10038 <handle_exception>
   10034:	0040006f          	j	10038 <handle_exception>

0000000000010038 <handle_exception>:
   10038:	5391e193          	ori	gp,gp,1337

000000000001003c <write_tohost>:
   1003c:	00001f17          	auipc	t5,0x1
   10040:	fc3f2223          	sw	gp,-60(t5) # 11000 <tohost>
   10044:	ff9ff06f          	j	1003c <write_tohost>

0000000000010048 <reset_vector>:
   10048:	00000093          	li	ra,0
   1004c:	00000113          	li	sp,0
   10050:	00000193          	li	gp,0
   10054:	00000213          	li	tp,0
   10058:	00000293          	li	t0,0
   1005c:	00000313          	li	t1,0
   10060:	00000393          	li	t2,0
   10064:	00000413          	li	s0,0
   10068:	00000493          	li	s1,0
   1006c:	00000513          	li	a0,0
   10070:	00000593          	li	a1,0
   10074:	00000613          	li	a2,0
   10078:	00000693          	li	a3,0
   1007c:	00000713          	li	a4,0
   10080:	00000793          	li	a5,0
   10084:	00000813          	li	a6,0
   10088:	00000893          	li	a7,0
   1008c:	00000913          	li	s2,0
   10090:	00000993          	li	s3,0
   10094:	00000a13          	li	s4,0
   10098:	00000a93          	li	s5,0
   1009c:	00000b13          	li	s6,0
   100a0:	00000b93          	li	s7,0
   100a4:	00000c13          	li	s8,0
   100a8:	00000c93          	li	s9,0
   100ac:	00000d13          	li	s10,0
   100b0:	00000d93          	li	s11,0
   100b4:	00000e13          	li	t3,0
   100b8:	00000e93          	li	t4,0
   100bc:	00000f13          	li	t5,0
   100c0:	00000f93          	li	t6,0
   100c4:	f1402573          	csrr	a0,mhartid
   100c8:	00051063          	bnez	a0,100c8 <reset_vector+0x80>
   100cc:	00000297          	auipc	t0,0x0
   100d0:	01028293          	addi	t0,t0,16 # 100dc <reset_vector+0x94>
   100d4:	30529073          	csrw	mtvec,t0
   100d8:	18005073          	csrwi	satp,0
   100dc:	00000297          	auipc	t0,0x0
   100e0:	02428293          	addi	t0,t0,36 # 10100 <reset_vector+0xb8>
   100e4:	30529073          	csrw	mtvec,t0
   100e8:	0010029b          	addiw	t0,zero,1
   100ec:	03529293          	slli	t0,t0,0x35
   100f0:	fff28293          	addi	t0,t0,-1
   100f4:	3b029073          	csrw	pmpaddr0,t0
   100f8:	01f00293          	li	t0,31
   100fc:	3a029073          	csrw	pmpcfg0,t0
   10100:	00000297          	auipc	t0,0x0
   10104:	01828293          	addi	t0,t0,24 # 10118 <reset_vector+0xd0>
   10108:	30529073          	csrw	mtvec,t0
   1010c:	30205073          	csrwi	medeleg,0
   10110:	30305073          	csrwi	mideleg,0
   10114:	30405073          	csrwi	mie,0
   10118:	00000193          	li	gp,0
   1011c:	00000297          	auipc	t0,0x0
   10120:	ee828293          	addi	t0,t0,-280 # 10004 <trap_vector>
   10124:	30529073          	csrw	mtvec,t0
   10128:	00100513          	li	a0,1
   1012c:	01f51513          	slli	a0,a0,0x1f
   10130:	00055c63          	bgez	a0,10148 <reset_vector+0x100>
   10134:	0ff0000f          	fence
   10138:	00100193          	li	gp,1
   1013c:	05d00893          	li	a7,93
   10140:	00000513          	li	a0,0
   10144:	00000073          	ecall
   10148:	00000293          	li	t0,0
   1014c:	00028a63          	beqz	t0,10160 <reset_vector+0x118>
   10150:	10529073          	csrw	stvec,t0
   10154:	0000b2b7          	lui	t0,0xb
   10158:	1092829b          	addiw	t0,t0,265
   1015c:	30229073          	csrw	medeleg,t0
   10160:	30005073          	csrwi	mstatus,0
   10164:	00000297          	auipc	t0,0x0
   10168:	01428293          	addi	t0,t0,20 # 10178 <test_2>
   1016c:	34129073          	csrw	mepc,t0
   10170:	f1402573          	csrr	a0,mhartid
   10174:	30200073          	mret

0000000000010178 <test_2>:
   10178:	800000b7          	lui	ra,0x80000
   1017c:	00000113          	li	sp,0
   10180:	4020d733          	sra	a4,ra,sp
   10184:	800003b7          	lui	t2,0x80000
   10188:	00200193          	li	gp,2
   1018c:	58771463          	bne	a4,t2,10714 <fail>

0000000000010190 <test_3>:
   10190:	800000b7          	lui	ra,0x80000
   10194:	00100113          	li	sp,1
   10198:	4020d733          	sra	a4,ra,sp
   1019c:	c00003b7          	lui	t2,0xc0000
   101a0:	00300193          	li	gp,3
   101a4:	56771863          	bne	a4,t2,10714 <fail>

00000000000101a8 <test_4>:
   101a8:	800000b7          	lui	ra,0x80000
   101ac:	00700113          	li	sp,7
   101b0:	4020d733          	sra	a4,ra,sp
   101b4:	ff0003b7          	lui	t2,0xff000
   101b8:	00400193          	li	gp,4
   101bc:	54771c63          	bne	a4,t2,10714 <fail>

00000000000101c0 <test_5>:
   101c0:	800000b7          	lui	ra,0x80000
   101c4:	00e00113          	li	sp,14
   101c8:	4020d733          	sra	a4,ra,sp
   101cc:	fffe03b7          	lui	t2,0xfffe0
   101d0:	00500193          	li	gp,5
   101d4:	54771063          	bne	a4,t2,10714 <fail>

00000000000101d8 <test_6>:
   101d8:	800000b7          	lui	ra,0x80000
   101dc:	0010809b          	addiw	ra,ra,1
   101e0:	01f00113          	li	sp,31
   101e4:	4020d733          	sra	a4,ra,sp
   101e8:	fff00393          	li	t2,-1
   101ec:	00600193          	li	gp,6
   101f0:	52771263          	bne	a4,t2,10714 <fail>

00000000000101f4 <test_7>:
   101f4:	800000b7          	lui	ra,0x80000
   101f8:	fff0809b          	addiw	ra,ra,-1
   101fc:	00000113          	li	sp,0
   10200:	4020d733          	sra	a4,ra,sp
   10204:	800003b7          	lui	t2,0x80000
   10208:	fff3839b          	addiw	t2,t2,-1
   1020c:	00700193          	li	gp,7
   10210:	50771263          	bne	a4,t2,10714 <fail>

0000000000010214 <test_8>:
   10214:	800000b7          	lui	ra,0x80000
   10218:	fff0809b          	addiw	ra,ra,-1
   1021c:	00100113          	li	sp,1
   10220:	4020d733          	sra	a4,ra,sp
   10224:	400003b7          	lui	t2,0x40000
   10228:	fff3839b          	addiw	t2,t2,-1
   1022c:	00800193          	li	gp,8
   10230:	4e771263          	bne	a4,t2,10714 <fail>

0000000000010234 <test_9>:
   10234:	800000b7          	lui	ra,0x80000
   10238:	fff0809b          	addiw	ra,ra,-1
   1023c:	00700113          	li	sp,7
   10240:	4020d733          	sra	a4,ra,sp
   10244:	010003b7          	lui	t2,0x1000
   10248:	fff3839b          	addiw	t2,t2,-1
   1024c:	00900193          	li	gp,9
   10250:	4c771263          	bne	a4,t2,10714 <fail>

0000000000010254 <test_10>:
   10254:	800000b7          	lui	ra,0x80000
   10258:	fff0809b          	addiw	ra,ra,-1
   1025c:	00e00113          	li	sp,14
   10260:	4020d733          	sra	a4,ra,sp
   10264:	000203b7          	lui	t2,0x20
   10268:	fff3839b          	addiw	t2,t2,-1
   1026c:	00a00193          	li	gp,10
   10270:	4a771263          	bne	a4,t2,10714 <fail>

0000000000010274 <test_11>:
   10274:	800000b7          	lui	ra,0x80000
   10278:	fff0809b          	addiw	ra,ra,-1
   1027c:	01f00113          	li	sp,31
   10280:	4020d733          	sra	a4,ra,sp
   10284:	00000393          	li	t2,0
   10288:	00b00193          	li	gp,11
   1028c:	48771463          	bne	a4,t2,10714 <fail>

0000000000010290 <test_12>:
   10290:	818180b7          	lui	ra,0x81818
   10294:	1810809b          	addiw	ra,ra,385
   10298:	00000113          	li	sp,0
   1029c:	4020d733          	sra	a4,ra,sp
   102a0:	818183b7          	lui	t2,0x81818
   102a4:	1813839b          	addiw	t2,t2,385
   102a8:	00c00193          	li	gp,12
   102ac:	46771463          	bne	a4,t2,10714 <fail>

00000000000102b0 <test_13>:
   102b0:	818180b7          	lui	ra,0x81818
   102b4:	1810809b          	addiw	ra,ra,385
   102b8:	00100113          	li	sp,1
   102bc:	4020d733          	sra	a4,ra,sp
   102c0:	c0c0c3b7          	lui	t2,0xc0c0c
   102c4:	0c03839b          	addiw	t2,t2,192
   102c8:	00d00193          	li	gp,13
   102cc:	44771463          	bne	a4,t2,10714 <fail>

00000000000102d0 <test_14>:
   102d0:	818180b7          	lui	ra,0x81818
   102d4:	1810809b          	addiw	ra,ra,385
   102d8:	00700113          	li	sp,7
   102dc:	4020d733          	sra	a4,ra,sp
   102e0:	ff0303b7          	lui	t2,0xff030
   102e4:	3033839b          	addiw	t2,t2,771
   102e8:	00e00193          	li	gp,14
   102ec:	42771463          	bne	a4,t2,10714 <fail>

00000000000102f0 <test_15>:
   102f0:	818180b7          	lui	ra,0x81818
   102f4:	1810809b          	addiw	ra,ra,385
   102f8:	00e00113          	li	sp,14
   102fc:	4020d733          	sra	a4,ra,sp
   10300:	fffe03b7          	lui	t2,0xfffe0
   10304:	6063839b          	addiw	t2,t2,1542
   10308:	00f00193          	li	gp,15
   1030c:	40771463          	bne	a4,t2,10714 <fail>

0000000000010310 <test_16>:
   10310:	818180b7          	lui	ra,0x81818
   10314:	1810809b          	addiw	ra,ra,385
   10318:	01f00113          	li	sp,31
   1031c:	4020d733          	sra	a4,ra,sp
   10320:	fff00393          	li	t2,-1
   10324:	01000193          	li	gp,16
   10328:	3e771663          	bne	a4,t2,10714 <fail>

000000000001032c <test_17>:
   1032c:	818180b7          	lui	ra,0x81818
   10330:	1810809b          	addiw	ra,ra,385
   10334:	fc000113          	li	sp,-64
   10338:	4020d733          	sra	a4,ra,sp
   1033c:	818183b7          	lui	t2,0x81818
   10340:	1813839b          	addiw	t2,t2,385
   10344:	01100193          	li	gp,17
   10348:	3c771663          	bne	a4,t2,10714 <fail>

000000000001034c <test_18>:
   1034c:	818180b7          	lui	ra,0x81818
   10350:	1810809b          	addiw	ra,ra,385
   10354:	fc100113          	li	sp,-63
   10358:	4020d733          	sra	a4,ra,sp
   1035c:	c0c0c3b7          	lui	t2,0xc0c0c
   10360:	0c03839b          	addiw	t2,t2,192
   10364:	01200193          	li	gp,18
   10368:	3a771663          	bne	a4,t2,10714 <fail>

000000000001036c <test_19>:
   1036c:	818180b7          	lui	ra,0x81818
   10370:	1810809b          	addiw	ra,ra,385
   10374:	fc700113          	li	sp,-57
   10378:	4020d733          	sra	a4,ra,sp
   1037c:	ff0303b7          	lui	t2,0xff030
   10380:	3033839b          	addiw	t2,t2,771
   10384:	01300193          	li	gp,19
   10388:	38771663          	bne	a4,t2,10714 <fail>

000000000001038c <test_20>:
   1038c:	818180b7          	lui	ra,0x81818
   10390:	1810809b          	addiw	ra,ra,385
   10394:	fce00113          	li	sp,-50
   10398:	4020d733          	sra	a4,ra,sp
   1039c:	fffe03b7          	lui	t2,0xfffe0
   103a0:	6063839b          	addiw	t2,t2,1542
   103a4:	01400193          	li	gp,20
   103a8:	36771663          	bne	a4,t2,10714 <fail>

00000000000103ac <test_21>:
   103ac:	818180b7          	lui	ra,0x81818
   103b0:	1810809b          	addiw	ra,ra,385
   103b4:	fff00113          	li	sp,-1
   103b8:	4020d733          	sra	a4,ra,sp
   103bc:	fff00393          	li	t2,-1
   103c0:	01500193          	li	gp,21
   103c4:	34771863          	bne	a4,t2,10714 <fail>

00000000000103c8 <test_22>:
   103c8:	800000b7          	lui	ra,0x80000
   103cc:	00700113          	li	sp,7
   103d0:	4020d0b3          	sra	ra,ra,sp
   103d4:	ff0003b7          	lui	t2,0xff000
   103d8:	01600193          	li	gp,22
   103dc:	32709c63          	bne	ra,t2,10714 <fail>

00000000000103e0 <test_23>:
   103e0:	800000b7          	lui	ra,0x80000
   103e4:	00e00113          	li	sp,14
   103e8:	4020d133          	sra	sp,ra,sp
   103ec:	fffe03b7          	lui	t2,0xfffe0
   103f0:	01700193          	li	gp,23
   103f4:	32711063          	bne	sp,t2,10714 <fail>

00000000000103f8 <test_24>:
   103f8:	00700093          	li	ra,7
   103fc:	4010d0b3          	sra	ra,ra,ra
   10400:	00000393          	li	t2,0
   10404:	01800193          	li	gp,24
   10408:	30709663          	bne	ra,t2,10714 <fail>

000000000001040c <test_25>:
   1040c:	00000213          	li	tp,0
   10410:	800000b7          	lui	ra,0x80000
   10414:	00700113          	li	sp,7
   10418:	4020d733          	sra	a4,ra,sp
   1041c:	00070313          	mv	t1,a4
   10420:	00120213          	addi	tp,tp,1 # 1 <_start-0xffff>
   10424:	00200293          	li	t0,2
   10428:	fe5214e3          	bne	tp,t0,10410 <test_25+0x4>
   1042c:	ff0003b7          	lui	t2,0xff000
   10430:	01900193          	li	gp,25
   10434:	2e731063          	bne	t1,t2,10714 <fail>

0000000000010438 <test_26>:
   10438:	00000213          	li	tp,0
   1043c:	800000b7          	lui	ra,0x80000
   10440:	00e00113          	li	sp,14
   10444:	4020d733          	sra	a4,ra,sp
   10448:	00000013          	nop
   1044c:	00070313          	mv	t1,a4
   10450:	00120213          	addi	tp,tp,1 # 1 <_start-0xffff>
   10454:	00200293          	li	t0,2
   10458:	fe5212e3          	bne	tp,t0,1043c <test_26+0x4>
   1045c:	fffe03b7          	lui	t2,0xfffe0
   10460:	01a00193          	li	gp,26
   10464:	2a731863          	bne	t1,t2,10714 <fail>

0000000000010468 <test_27>:
   10468:	00000213          	li	tp,0
   1046c:	800000b7          	lui	ra,0x80000
   10470:	01f00113          	li	sp,31
   10474:	4020d733          	sra	a4,ra,sp
   10478:	00000013          	nop
   1047c:	00000013          	nop
   10480:	00070313          	mv	t1,a4
   10484:	00120213          	addi	tp,tp,1 # 1 <_start-0xffff>
   10488:	00200293          	li	t0,2
   1048c:	fe5210e3          	bne	tp,t0,1046c <test_27+0x4>
   10490:	fff00393          	li	t2,-1
   10494:	01b00193          	li	gp,27
   10498:	26731e63          	bne	t1,t2,10714 <fail>

000000000001049c <test_28>:
   1049c:	00000213          	li	tp,0
   104a0:	800000b7          	lui	ra,0x80000
   104a4:	00700113          	li	sp,7
   104a8:	4020d733          	sra	a4,ra,sp
   104ac:	00120213          	addi	tp,tp,1 # 1 <_start-0xffff>
   104b0:	00200293          	li	t0,2
   104b4:	fe5216e3          	bne	tp,t0,104a0 <test_28+0x4>
   104b8:	ff0003b7          	lui	t2,0xff000
   104bc:	01c00193          	li	gp,28
   104c0:	24771a63          	bne	a4,t2,10714 <fail>

00000000000104c4 <test_29>:
   104c4:	00000213          	li	tp,0
   104c8:	800000b7          	lui	ra,0x80000
   104cc:	00e00113          	li	sp,14
   104d0:	00000013          	nop
   104d4:	4020d733          	sra	a4,ra,sp
   104d8:	00120213          	addi	tp,tp,1 # 1 <_start-0xffff>
   104dc:	00200293          	li	t0,2
   104e0:	fe5214e3          	bne	tp,t0,104c8 <test_29+0x4>
   104e4:	fffe03b7          	lui	t2,0xfffe0
   104e8:	01d00193          	li	gp,29
   104ec:	22771463          	bne	a4,t2,10714 <fail>

00000000000104f0 <test_30>:
   104f0:	00000213          	li	tp,0
   104f4:	800000b7          	lui	ra,0x80000
   104f8:	01f00113          	li	sp,31
   104fc:	00000013          	nop
   10500:	00000013          	nop
   10504:	4020d733          	sra	a4,ra,sp
   10508:	00120213          	addi	tp,tp,1 # 1 <_start-0xffff>
   1050c:	00200293          	li	t0,2
   10510:	fe5212e3          	bne	tp,t0,104f4 <test_30+0x4>
   10514:	fff00393          	li	t2,-1
   10518:	01e00193          	li	gp,30
   1051c:	1e771c63          	bne	a4,t2,10714 <fail>

0000000000010520 <test_31>:
   10520:	00000213          	li	tp,0
   10524:	800000b7          	lui	ra,0x80000
   10528:	00000013          	nop
   1052c:	00700113          	li	sp,7
   10530:	4020d733          	sra	a4,ra,sp
   10534:	00120213          	addi	tp,tp,1 # 1 <_start-0xffff>
   10538:	00200293          	li	t0,2
   1053c:	fe5214e3          	bne	tp,t0,10524 <test_31+0x4>
   10540:	ff0003b7          	lui	t2,0xff000
   10544:	01f00193          	li	gp,31
   10548:	1c771663          	bne	a4,t2,10714 <fail>

000000000001054c <test_32>:
   1054c:	00000213          	li	tp,0
   10550:	800000b7          	lui	ra,0x80000
   10554:	00000013          	nop
   10558:	00e00113          	li	sp,14
   1055c:	00000013          	nop
   10560:	4020d733          	sra	a4,ra,sp
   10564:	00120213          	addi	tp,tp,1 # 1 <_start-0xffff>
   10568:	00200293          	li	t0,2
   1056c:	fe5212e3          	bne	tp,t0,10550 <test_32+0x4>
   10570:	fffe03b7          	lui	t2,0xfffe0
   10574:	02000193          	li	gp,32
   10578:	18771e63          	bne	a4,t2,10714 <fail>

000000000001057c <test_33>:
   1057c:	00000213          	li	tp,0
   10580:	800000b7          	lui	ra,0x80000
   10584:	00000013          	nop
   10588:	00000013          	nop
   1058c:	01f00113          	li	sp,31
   10590:	4020d733          	sra	a4,ra,sp
   10594:	00120213          	addi	tp,tp,1 # 1 <_start-0xffff>
   10598:	00200293          	li	t0,2
   1059c:	fe5212e3          	bne	tp,t0,10580 <test_33+0x4>
   105a0:	fff00393          	li	t2,-1
   105a4:	02100193          	li	gp,33
   105a8:	16771663          	bne	a4,t2,10714 <fail>

00000000000105ac <test_34>:
   105ac:	00000213          	li	tp,0
   105b0:	00700113          	li	sp,7
   105b4:	800000b7          	lui	ra,0x80000
   105b8:	4020d733          	sra	a4,ra,sp
   105bc:	00120213          	addi	tp,tp,1 # 1 <_start-0xffff>
   105c0:	00200293          	li	t0,2
   105c4:	fe5216e3          	bne	tp,t0,105b0 <test_34+0x4>
   105c8:	ff0003b7          	lui	t2,0xff000
   105cc:	02200193          	li	gp,34
   105d0:	14771263          	bne	a4,t2,10714 <fail>

00000000000105d4 <test_35>:
   105d4:	00000213          	li	tp,0
   105d8:	00e00113          	li	sp,14
   105dc:	800000b7          	lui	ra,0x80000
   105e0:	00000013          	nop
   105e4:	4020d733          	sra	a4,ra,sp
   105e8:	00120213          	addi	tp,tp,1 # 1 <_start-0xffff>
   105ec:	00200293          	li	t0,2
   105f0:	fe5214e3          	bne	tp,t0,105d8 <test_35+0x4>
   105f4:	fffe03b7          	lui	t2,0xfffe0
   105f8:	02300193          	li	gp,35
   105fc:	10771c63          	bne	a4,t2,10714 <fail>

0000000000010600 <test_36>:
   10600:	00000213          	li	tp,0
   10604:	01f00113          	li	sp,31
   10608:	800000b7          	lui	ra,0x80000
   1060c:	00000013          	nop
   10610:	00000013          	nop
   10614:	4020d733          	sra	a4,ra,sp
   10618:	00120213          	addi	tp,tp,1 # 1 <_start-0xffff>
   1061c:	00200293          	li	t0,2
   10620:	fe5212e3          	bne	tp,t0,10604 <test_36+0x4>
   10624:	fff00393          	li	t2,-1
   10628:	02400193          	li	gp,36
   1062c:	0e771463          	bne	a4,t2,10714 <fail>

0000000000010630 <test_37>:
   10630:	00000213          	li	tp,0
   10634:	00700113          	li	sp,7
   10638:	00000013          	nop
   1063c:	800000b7          	lui	ra,0x80000
   10640:	4020d733          	sra	a4,ra,sp
   10644:	00120213          	addi	tp,tp,1 # 1 <_start-0xffff>
   10648:	00200293          	li	t0,2
   1064c:	fe5214e3          	bne	tp,t0,10634 <test_37+0x4>
   10650:	ff0003b7          	lui	t2,0xff000
   10654:	02500193          	li	gp,37
   10658:	0a771e63          	bne	a4,t2,10714 <fail>

000000000001065c <test_38>:
   1065c:	00000213          	li	tp,0
   10660:	00e00113          	li	sp,14
   10664:	00000013          	nop
   10668:	800000b7          	lui	ra,0x80000
   1066c:	00000013          	nop
   10670:	4020d733          	sra	a4,ra,sp
   10674:	00120213          	addi	tp,tp,1 # 1 <_start-0xffff>
   10678:	00200293          	li	t0,2
   1067c:	fe5212e3          	bne	tp,t0,10660 <test_38+0x4>
   10680:	fffe03b7          	lui	t2,0xfffe0
   10684:	02600193          	li	gp,38
   10688:	08771663          	bne	a4,t2,10714 <fail>

000000000001068c <test_39>:
   1068c:	00000213          	li	tp,0
   10690:	01f00113          	li	sp,31
   10694:	00000013          	nop
   10698:	00000013          	nop
   1069c:	800000b7          	lui	ra,0x80000
   106a0:	4020d733          	sra	a4,ra,sp
   106a4:	00120213          	addi	tp,tp,1 # 1 <_start-0xffff>
   106a8:	00200293          	li	t0,2
   106ac:	fe5212e3          	bne	tp,t0,10690 <test_39+0x4>
   106b0:	fff00393          	li	t2,-1
   106b4:	02700193          	li	gp,39
   106b8:	04771e63          	bne	a4,t2,10714 <fail>

00000000000106bc <test_40>:
   106bc:	00f00093          	li	ra,15
   106c0:	40105133          	sra	sp,zero,ra
   106c4:	00000393          	li	t2,0
   106c8:	02800193          	li	gp,40
   106cc:	04711463          	bne	sp,t2,10714 <fail>

00000000000106d0 <test_41>:
   106d0:	02000093          	li	ra,32
   106d4:	4000d133          	sra	sp,ra,zero
   106d8:	02000393          	li	t2,32
   106dc:	02900193          	li	gp,41
   106e0:	02711a63          	bne	sp,t2,10714 <fail>

00000000000106e4 <test_42>:
   106e4:	400050b3          	sra	ra,zero,zero
   106e8:	00000393          	li	t2,0
   106ec:	02a00193          	li	gp,42
   106f0:	02709263          	bne	ra,t2,10714 <fail>

00000000000106f4 <test_43>:
   106f4:	40000093          	li	ra,1024
   106f8:	00001137          	lui	sp,0x1
   106fc:	8001011b          	addiw	sp,sp,-2048
   10700:	4020d033          	sra	zero,ra,sp
   10704:	00000393          	li	t2,0
   10708:	02b00193          	li	gp,43
   1070c:	00701463          	bne	zero,t2,10714 <fail>
   10710:	02301063          	bne	zero,gp,10730 <pass>

0000000000010714 <fail>:
   10714:	0ff0000f          	fence
   10718:	00018063          	beqz	gp,10718 <fail+0x4>
   1071c:	00119193          	slli	gp,gp,0x1
   10720:	0011e193          	ori	gp,gp,1
   10724:	05d00893          	li	a7,93
   10728:	00018513          	mv	a0,gp
   1072c:	00000073          	ecall

0000000000010730 <pass>:
   10730:	0ff0000f          	fence
   10734:	00100193          	li	gp,1
   10738:	05d00893          	li	a7,93
   1073c:	00000513          	li	a0,0
   10740:	00000073          	ecall
   10744:	c0001073          	unimp
   10748:	0000                	unimp
   1074a:	0000                	unimp
   1074c:	0000                	unimp
   1074e:	0000                	unimp
   10750:	0000                	unimp
   10752:	0000                	unimp
   10754:	0000                	unimp
   10756:	0000                	unimp
   10758:	0000                	unimp
   1075a:	0000                	unimp
   1075c:	0000                	unimp
   1075e:	0000                	unimp
   10760:	0000                	unimp
   10762:	0000                	unimp
   10764:	0000                	unimp
   10766:	0000                	unimp
   10768:	0000                	unimp
   1076a:	0000                	unimp
   1076c:	0000                	unimp
   1076e:	0000                	unimp
   10770:	0000                	unimp
   10772:	0000                	unimp
   10774:	0000                	unimp
   10776:	0000                	unimp
   10778:	0000                	unimp
   1077a:	0000                	unimp
