
rv64um-p-mulw:     file format elf64-littleriscv


Disassembly of section .text.init:

0000000000010000 <_start>:
   10000:	0480006f          	j	10048 <reset_vector>

0000000000010004 <trap_vector>:
   10004:	34202f73          	csrr	t5,mcause
   10008:	00800f93          	li	t6,8
   1000c:	03ff0863          	beq	t5,t6,1003c <write_tohost>
   10010:	00900f93          	li	t6,9
   10014:	03ff0463          	beq	t5,t6,1003c <write_tohost>
   10018:	00b00f93          	li	t6,11
   1001c:	03ff0063          	beq	t5,t6,1003c <write_tohost>
   10020:	00000f13          	li	t5,0
   10024:	000f0463          	beqz	t5,1002c <trap_vector+0x28>
   10028:	000f0067          	jr	t5
   1002c:	34202f73          	csrr	t5,mcause
   10030:	000f5463          	bgez	t5,10038 <handle_exception>
   10034:	0040006f          	j	10038 <handle_exception>

0000000000010038 <handle_exception>:
   10038:	5391e193          	ori	gp,gp,1337

000000000001003c <write_tohost>:
   1003c:	00001f17          	auipc	t5,0x1
   10040:	fc3f2223          	sw	gp,-60(t5) # 11000 <tohost>
   10044:	ff9ff06f          	j	1003c <write_tohost>

0000000000010048 <reset_vector>:
   10048:	00000093          	li	ra,0
   1004c:	00000113          	li	sp,0
   10050:	00000193          	li	gp,0
   10054:	00000213          	li	tp,0
   10058:	00000293          	li	t0,0
   1005c:	00000313          	li	t1,0
   10060:	00000393          	li	t2,0
   10064:	00000413          	li	s0,0
   10068:	00000493          	li	s1,0
   1006c:	00000513          	li	a0,0
   10070:	00000593          	li	a1,0
   10074:	00000613          	li	a2,0
   10078:	00000693          	li	a3,0
   1007c:	00000713          	li	a4,0
   10080:	00000793          	li	a5,0
   10084:	00000813          	li	a6,0
   10088:	00000893          	li	a7,0
   1008c:	00000913          	li	s2,0
   10090:	00000993          	li	s3,0
   10094:	00000a13          	li	s4,0
   10098:	00000a93          	li	s5,0
   1009c:	00000b13          	li	s6,0
   100a0:	00000b93          	li	s7,0
   100a4:	00000c13          	li	s8,0
   100a8:	00000c93          	li	s9,0
   100ac:	00000d13          	li	s10,0
   100b0:	00000d93          	li	s11,0
   100b4:	00000e13          	li	t3,0
   100b8:	00000e93          	li	t4,0
   100bc:	00000f13          	li	t5,0
   100c0:	00000f93          	li	t6,0
   100c4:	f1402573          	csrr	a0,mhartid
   100c8:	00051063          	bnez	a0,100c8 <reset_vector+0x80>
   100cc:	00000297          	auipc	t0,0x0
   100d0:	01028293          	addi	t0,t0,16 # 100dc <reset_vector+0x94>
   100d4:	30529073          	csrw	mtvec,t0
   100d8:	18005073          	csrwi	satp,0
   100dc:	00000297          	auipc	t0,0x0
   100e0:	02428293          	addi	t0,t0,36 # 10100 <reset_vector+0xb8>
   100e4:	30529073          	csrw	mtvec,t0
   100e8:	0010029b          	addiw	t0,zero,1
   100ec:	03529293          	slli	t0,t0,0x35
   100f0:	fff28293          	addi	t0,t0,-1
   100f4:	3b029073          	csrw	pmpaddr0,t0
   100f8:	01f00293          	li	t0,31
   100fc:	3a029073          	csrw	pmpcfg0,t0
   10100:	00000297          	auipc	t0,0x0
   10104:	01828293          	addi	t0,t0,24 # 10118 <reset_vector+0xd0>
   10108:	30529073          	csrw	mtvec,t0
   1010c:	30205073          	csrwi	medeleg,0
   10110:	30305073          	csrwi	mideleg,0
   10114:	30405073          	csrwi	mie,0
   10118:	00000193          	li	gp,0
   1011c:	00000297          	auipc	t0,0x0
   10120:	ee828293          	addi	t0,t0,-280 # 10004 <trap_vector>
   10124:	30529073          	csrw	mtvec,t0
   10128:	00100513          	li	a0,1
   1012c:	01f51513          	slli	a0,a0,0x1f
   10130:	00055c63          	bgez	a0,10148 <reset_vector+0x100>
   10134:	0ff0000f          	fence
   10138:	00100193          	li	gp,1
   1013c:	05d00893          	li	a7,93
   10140:	00000513          	li	a0,0
   10144:	00000073          	ecall
   10148:	00000293          	li	t0,0
   1014c:	00028a63          	beqz	t0,10160 <reset_vector+0x118>
   10150:	10529073          	csrw	stvec,t0
   10154:	0000b2b7          	lui	t0,0xb
   10158:	1092829b          	addiw	t0,t0,265
   1015c:	30229073          	csrw	medeleg,t0
   10160:	30005073          	csrwi	mstatus,0
   10164:	00000297          	auipc	t0,0x0
   10168:	01428293          	addi	t0,t0,20 # 10178 <test_2>
   1016c:	34129073          	csrw	mepc,t0
   10170:	f1402573          	csrr	a0,mhartid
   10174:	30200073          	mret

0000000000010178 <test_2>:
   10178:	00000093          	li	ra,0
   1017c:	00000113          	li	sp,0
   10180:	0220873b          	mulw	a4,ra,sp
   10184:	00000393          	li	t2,0
   10188:	00200193          	li	gp,2
   1018c:	3c771263          	bne	a4,t2,10550 <fail>

0000000000010190 <test_3>:
   10190:	00100093          	li	ra,1
   10194:	00100113          	li	sp,1
   10198:	0220873b          	mulw	a4,ra,sp
   1019c:	00100393          	li	t2,1
   101a0:	00300193          	li	gp,3
   101a4:	3a771663          	bne	a4,t2,10550 <fail>

00000000000101a8 <test_4>:
   101a8:	00300093          	li	ra,3
   101ac:	00700113          	li	sp,7
   101b0:	0220873b          	mulw	a4,ra,sp
   101b4:	01500393          	li	t2,21
   101b8:	00400193          	li	gp,4
   101bc:	38771a63          	bne	a4,t2,10550 <fail>

00000000000101c0 <test_5>:
   101c0:	00000093          	li	ra,0
   101c4:	ffff8137          	lui	sp,0xffff8
   101c8:	0220873b          	mulw	a4,ra,sp
   101cc:	00000393          	li	t2,0
   101d0:	00500193          	li	gp,5
   101d4:	36771e63          	bne	a4,t2,10550 <fail>

00000000000101d8 <test_6>:
   101d8:	800000b7          	lui	ra,0x80000
   101dc:	00000113          	li	sp,0
   101e0:	0220873b          	mulw	a4,ra,sp
   101e4:	00000393          	li	t2,0
   101e8:	00600193          	li	gp,6
   101ec:	36771263          	bne	a4,t2,10550 <fail>

00000000000101f0 <test_7>:
   101f0:	800000b7          	lui	ra,0x80000
   101f4:	ffff8137          	lui	sp,0xffff8
   101f8:	0220873b          	mulw	a4,ra,sp
   101fc:	00000393          	li	t2,0
   10200:	00700193          	li	gp,7
   10204:	34771663          	bne	a4,t2,10550 <fail>

0000000000010208 <test_8>:
   10208:	00d00093          	li	ra,13
   1020c:	00b00113          	li	sp,11
   10210:	022080bb          	mulw	ra,ra,sp
   10214:	08f00393          	li	t2,143
   10218:	00800193          	li	gp,8
   1021c:	32709a63          	bne	ra,t2,10550 <fail>

0000000000010220 <test_9>:
   10220:	00e00093          	li	ra,14
   10224:	00b00113          	li	sp,11
   10228:	0220813b          	mulw	sp,ra,sp
   1022c:	09a00393          	li	t2,154
   10230:	00900193          	li	gp,9
   10234:	30711e63          	bne	sp,t2,10550 <fail>

0000000000010238 <test_10>:
   10238:	00d00093          	li	ra,13
   1023c:	021080bb          	mulw	ra,ra,ra
   10240:	0a900393          	li	t2,169
   10244:	00a00193          	li	gp,10
   10248:	30709463          	bne	ra,t2,10550 <fail>

000000000001024c <test_11>:
   1024c:	00000213          	li	tp,0
   10250:	00d00093          	li	ra,13
   10254:	00b00113          	li	sp,11
   10258:	0220873b          	mulw	a4,ra,sp
   1025c:	00070313          	mv	t1,a4
   10260:	00120213          	addi	tp,tp,1 # 1 <_start-0xffff>
   10264:	00200293          	li	t0,2
   10268:	fe5214e3          	bne	tp,t0,10250 <test_11+0x4>
   1026c:	08f00393          	li	t2,143
   10270:	00b00193          	li	gp,11
   10274:	2c731e63          	bne	t1,t2,10550 <fail>

0000000000010278 <test_12>:
   10278:	00000213          	li	tp,0
   1027c:	00e00093          	li	ra,14
   10280:	00b00113          	li	sp,11
   10284:	0220873b          	mulw	a4,ra,sp
   10288:	00000013          	nop
   1028c:	00070313          	mv	t1,a4
   10290:	00120213          	addi	tp,tp,1 # 1 <_start-0xffff>
   10294:	00200293          	li	t0,2
   10298:	fe5212e3          	bne	tp,t0,1027c <test_12+0x4>
   1029c:	09a00393          	li	t2,154
   102a0:	00c00193          	li	gp,12
   102a4:	2a731663          	bne	t1,t2,10550 <fail>

00000000000102a8 <test_13>:
   102a8:	00000213          	li	tp,0
   102ac:	00f00093          	li	ra,15
   102b0:	00b00113          	li	sp,11
   102b4:	0220873b          	mulw	a4,ra,sp
   102b8:	00000013          	nop
   102bc:	00000013          	nop
   102c0:	00070313          	mv	t1,a4
   102c4:	00120213          	addi	tp,tp,1 # 1 <_start-0xffff>
   102c8:	00200293          	li	t0,2
   102cc:	fe5210e3          	bne	tp,t0,102ac <test_13+0x4>
   102d0:	0a500393          	li	t2,165
   102d4:	00d00193          	li	gp,13
   102d8:	26731c63          	bne	t1,t2,10550 <fail>

00000000000102dc <test_14>:
   102dc:	00000213          	li	tp,0
   102e0:	00d00093          	li	ra,13
   102e4:	00b00113          	li	sp,11
   102e8:	0220873b          	mulw	a4,ra,sp
   102ec:	00120213          	addi	tp,tp,1 # 1 <_start-0xffff>
   102f0:	00200293          	li	t0,2
   102f4:	fe5216e3          	bne	tp,t0,102e0 <test_14+0x4>
   102f8:	08f00393          	li	t2,143
   102fc:	00e00193          	li	gp,14
   10300:	24771863          	bne	a4,t2,10550 <fail>

0000000000010304 <test_15>:
   10304:	00000213          	li	tp,0
   10308:	00e00093          	li	ra,14
   1030c:	00b00113          	li	sp,11
   10310:	00000013          	nop
   10314:	0220873b          	mulw	a4,ra,sp
   10318:	00120213          	addi	tp,tp,1 # 1 <_start-0xffff>
   1031c:	00200293          	li	t0,2
   10320:	fe5214e3          	bne	tp,t0,10308 <test_15+0x4>
   10324:	09a00393          	li	t2,154
   10328:	00f00193          	li	gp,15
   1032c:	22771263          	bne	a4,t2,10550 <fail>

0000000000010330 <test_16>:
   10330:	00000213          	li	tp,0
   10334:	00f00093          	li	ra,15
   10338:	00b00113          	li	sp,11
   1033c:	00000013          	nop
   10340:	00000013          	nop
   10344:	0220873b          	mulw	a4,ra,sp
   10348:	00120213          	addi	tp,tp,1 # 1 <_start-0xffff>
   1034c:	00200293          	li	t0,2
   10350:	fe5212e3          	bne	tp,t0,10334 <test_16+0x4>
   10354:	0a500393          	li	t2,165
   10358:	01000193          	li	gp,16
   1035c:	1e771a63          	bne	a4,t2,10550 <fail>

0000000000010360 <test_17>:
   10360:	00000213          	li	tp,0
   10364:	00d00093          	li	ra,13
   10368:	00000013          	nop
   1036c:	00b00113          	li	sp,11
   10370:	0220873b          	mulw	a4,ra,sp
   10374:	00120213          	addi	tp,tp,1 # 1 <_start-0xffff>
   10378:	00200293          	li	t0,2
   1037c:	fe5214e3          	bne	tp,t0,10364 <test_17+0x4>
   10380:	08f00393          	li	t2,143
   10384:	01100193          	li	gp,17
   10388:	1c771463          	bne	a4,t2,10550 <fail>

000000000001038c <test_18>:
   1038c:	00000213          	li	tp,0
   10390:	00e00093          	li	ra,14
   10394:	00000013          	nop
   10398:	00b00113          	li	sp,11
   1039c:	00000013          	nop
   103a0:	0220873b          	mulw	a4,ra,sp
   103a4:	00120213          	addi	tp,tp,1 # 1 <_start-0xffff>
   103a8:	00200293          	li	t0,2
   103ac:	fe5212e3          	bne	tp,t0,10390 <test_18+0x4>
   103b0:	09a00393          	li	t2,154
   103b4:	01200193          	li	gp,18
   103b8:	18771c63          	bne	a4,t2,10550 <fail>

00000000000103bc <test_19>:
   103bc:	00000213          	li	tp,0
   103c0:	00f00093          	li	ra,15
   103c4:	00000013          	nop
   103c8:	00000013          	nop
   103cc:	00b00113          	li	sp,11
   103d0:	0220873b          	mulw	a4,ra,sp
   103d4:	00120213          	addi	tp,tp,1 # 1 <_start-0xffff>
   103d8:	00200293          	li	t0,2
   103dc:	fe5212e3          	bne	tp,t0,103c0 <test_19+0x4>
   103e0:	0a500393          	li	t2,165
   103e4:	01300193          	li	gp,19
   103e8:	16771463          	bne	a4,t2,10550 <fail>

00000000000103ec <test_20>:
   103ec:	00000213          	li	tp,0
   103f0:	00b00113          	li	sp,11
   103f4:	00d00093          	li	ra,13
   103f8:	0220873b          	mulw	a4,ra,sp
   103fc:	00120213          	addi	tp,tp,1 # 1 <_start-0xffff>
   10400:	00200293          	li	t0,2
   10404:	fe5216e3          	bne	tp,t0,103f0 <test_20+0x4>
   10408:	08f00393          	li	t2,143
   1040c:	01400193          	li	gp,20
   10410:	14771063          	bne	a4,t2,10550 <fail>

0000000000010414 <test_21>:
   10414:	00000213          	li	tp,0
   10418:	00b00113          	li	sp,11
   1041c:	00e00093          	li	ra,14
   10420:	00000013          	nop
   10424:	0220873b          	mulw	a4,ra,sp
   10428:	00120213          	addi	tp,tp,1 # 1 <_start-0xffff>
   1042c:	00200293          	li	t0,2
   10430:	fe5214e3          	bne	tp,t0,10418 <test_21+0x4>
   10434:	09a00393          	li	t2,154
   10438:	01500193          	li	gp,21
   1043c:	10771a63          	bne	a4,t2,10550 <fail>

0000000000010440 <test_22>:
   10440:	00000213          	li	tp,0
   10444:	00b00113          	li	sp,11
   10448:	00f00093          	li	ra,15
   1044c:	00000013          	nop
   10450:	00000013          	nop
   10454:	0220873b          	mulw	a4,ra,sp
   10458:	00120213          	addi	tp,tp,1 # 1 <_start-0xffff>
   1045c:	00200293          	li	t0,2
   10460:	fe5212e3          	bne	tp,t0,10444 <test_22+0x4>
   10464:	0a500393          	li	t2,165
   10468:	01600193          	li	gp,22
   1046c:	0e771263          	bne	a4,t2,10550 <fail>

0000000000010470 <test_23>:
   10470:	00000213          	li	tp,0
   10474:	00b00113          	li	sp,11
   10478:	00000013          	nop
   1047c:	00d00093          	li	ra,13
   10480:	0220873b          	mulw	a4,ra,sp
   10484:	00120213          	addi	tp,tp,1 # 1 <_start-0xffff>
   10488:	00200293          	li	t0,2
   1048c:	fe5214e3          	bne	tp,t0,10474 <test_23+0x4>
   10490:	08f00393          	li	t2,143
   10494:	01700193          	li	gp,23
   10498:	0a771c63          	bne	a4,t2,10550 <fail>

000000000001049c <test_24>:
   1049c:	00000213          	li	tp,0
   104a0:	00b00113          	li	sp,11
   104a4:	00000013          	nop
   104a8:	00e00093          	li	ra,14
   104ac:	00000013          	nop
   104b0:	0220873b          	mulw	a4,ra,sp
   104b4:	00120213          	addi	tp,tp,1 # 1 <_start-0xffff>
   104b8:	00200293          	li	t0,2
   104bc:	fe5212e3          	bne	tp,t0,104a0 <test_24+0x4>
   104c0:	09a00393          	li	t2,154
   104c4:	01800193          	li	gp,24
   104c8:	08771463          	bne	a4,t2,10550 <fail>

00000000000104cc <test_25>:
   104cc:	00000213          	li	tp,0
   104d0:	00b00113          	li	sp,11
   104d4:	00000013          	nop
   104d8:	00000013          	nop
   104dc:	00f00093          	li	ra,15
   104e0:	0220873b          	mulw	a4,ra,sp
   104e4:	00120213          	addi	tp,tp,1 # 1 <_start-0xffff>
   104e8:	00200293          	li	t0,2
   104ec:	fe5212e3          	bne	tp,t0,104d0 <test_25+0x4>
   104f0:	0a500393          	li	t2,165
   104f4:	01900193          	li	gp,25
   104f8:	04771c63          	bne	a4,t2,10550 <fail>

00000000000104fc <test_26>:
   104fc:	01f00093          	li	ra,31
   10500:	0210013b          	mulw	sp,zero,ra
   10504:	00000393          	li	t2,0
   10508:	01a00193          	li	gp,26
   1050c:	04711263          	bne	sp,t2,10550 <fail>

0000000000010510 <test_27>:
   10510:	02000093          	li	ra,32
   10514:	0200813b          	mulw	sp,ra,zero
   10518:	00000393          	li	t2,0
   1051c:	01b00193          	li	gp,27
   10520:	02711863          	bne	sp,t2,10550 <fail>

0000000000010524 <test_28>:
   10524:	020000bb          	mulw	ra,zero,zero
   10528:	00000393          	li	t2,0
   1052c:	01c00193          	li	gp,28
   10530:	02709063          	bne	ra,t2,10550 <fail>

0000000000010534 <test_29>:
   10534:	02100093          	li	ra,33
   10538:	02200113          	li	sp,34
   1053c:	0220803b          	mulw	zero,ra,sp
   10540:	00000393          	li	t2,0
   10544:	01d00193          	li	gp,29
   10548:	00701463          	bne	zero,t2,10550 <fail>
   1054c:	02301063          	bne	zero,gp,1056c <pass>

0000000000010550 <fail>:
   10550:	0ff0000f          	fence
   10554:	00018063          	beqz	gp,10554 <fail+0x4>
   10558:	00119193          	slli	gp,gp,0x1
   1055c:	0011e193          	ori	gp,gp,1
   10560:	05d00893          	li	a7,93
   10564:	00018513          	mv	a0,gp
   10568:	00000073          	ecall

000000000001056c <pass>:
   1056c:	0ff0000f          	fence
   10570:	00100193          	li	gp,1
   10574:	05d00893          	li	a7,93
   10578:	00000513          	li	a0,0
   1057c:	00000073          	ecall
   10580:	c0001073          	unimp
   10584:	0000                	unimp
   10586:	0000                	unimp
   10588:	0000                	unimp
   1058a:	0000                	unimp
   1058c:	0000                	unimp
   1058e:	0000                	unimp
   10590:	0000                	unimp
   10592:	0000                	unimp
   10594:	0000                	unimp
   10596:	0000                	unimp
   10598:	0000                	unimp
   1059a:	0000                	unimp
   1059c:	0000                	unimp
   1059e:	0000                	unimp
   105a0:	0000                	unimp
   105a2:	0000                	unimp
   105a4:	0000                	unimp
   105a6:	0000                	unimp
   105a8:	0000                	unimp
   105aa:	0000                	unimp
   105ac:	0000                	unimp
   105ae:	0000                	unimp
   105b0:	0000                	unimp
   105b2:	0000                	unimp
   105b4:	0000                	unimp
   105b6:	0000                	unimp
   105b8:	0000                	unimp
   105ba:	0000                	unimp
