
rv64ud-v-move:     file format elf64-littleriscv


Disassembly of section .text.init:

0000000000010000 <_start>:
   10000:	00c0006f          	j	1000c <handle_reset>

0000000000010004 <nmi_vector>:
   10004:	2c80206f          	j	122cc <wtf>

0000000000010008 <trap_vector>:
   10008:	2c40206f          	j	122cc <wtf>

000000000001000c <handle_reset>:
   1000c:	00000093          	li	ra,0
   10010:	00000113          	li	sp,0
   10014:	00000193          	li	gp,0
   10018:	00000213          	li	tp,0
   1001c:	00000293          	li	t0,0
   10020:	00000313          	li	t1,0
   10024:	00000393          	li	t2,0
   10028:	00000413          	li	s0,0
   1002c:	00000493          	li	s1,0
   10030:	00000513          	li	a0,0
   10034:	00000593          	li	a1,0
   10038:	00000613          	li	a2,0
   1003c:	00000693          	li	a3,0
   10040:	00000713          	li	a4,0
   10044:	00000793          	li	a5,0
   10048:	00000813          	li	a6,0
   1004c:	00000893          	li	a7,0
   10050:	00000913          	li	s2,0
   10054:	00000993          	li	s3,0
   10058:	00000a13          	li	s4,0
   1005c:	00000a93          	li	s5,0
   10060:	00000b13          	li	s6,0
   10064:	00000b93          	li	s7,0
   10068:	00000c13          	li	s8,0
   1006c:	00000c93          	li	s9,0
   10070:	00000d13          	li	s10,0
   10074:	00000d93          	li	s11,0
   10078:	00000e13          	li	t3,0
   1007c:	00000e93          	li	t4,0
   10080:	00000f13          	li	t5,0
   10084:	00000f93          	li	t6,0
   10088:	00000297          	auipc	t0,0x0
   1008c:	f8028293          	addi	t0,t0,-128 # 10008 <trap_vector>
   10090:	30529073          	csrw	mtvec,t0
   10094:	0000a117          	auipc	sp,0xa
   10098:	e4c10113          	addi	sp,sp,-436 # 19ee0 <freelist_head+0xed8>
   1009c:	f14022f3          	csrr	t0,mhartid
   100a0:	00c29293          	slli	t0,t0,0xc
   100a4:	00510133          	add	sp,sp,t0
   100a8:	34011073          	csrw	mscratch,sp
   100ac:	0b9020ef          	jal	ra,12964 <extra_boot>
   100b0:	00003517          	auipc	a0,0x3
   100b4:	8b850513          	addi	a0,a0,-1864 # 12968 <userstart>
   100b8:	6b00206f          	j	12768 <vm_boot>

00000000000100bc <pop_tf>:
   100bc:	10853283          	ld	t0,264(a0)
   100c0:	14129073          	csrw	sepc,t0
   100c4:	00853083          	ld	ra,8(a0)
   100c8:	01053103          	ld	sp,16(a0)
   100cc:	01853183          	ld	gp,24(a0)
   100d0:	02053203          	ld	tp,32(a0)
   100d4:	02853283          	ld	t0,40(a0)
   100d8:	03053303          	ld	t1,48(a0)
   100dc:	03853383          	ld	t2,56(a0)
   100e0:	04053403          	ld	s0,64(a0)
   100e4:	04853483          	ld	s1,72(a0)
   100e8:	05853583          	ld	a1,88(a0)
   100ec:	06053603          	ld	a2,96(a0)
   100f0:	06853683          	ld	a3,104(a0)
   100f4:	07053703          	ld	a4,112(a0)
   100f8:	07853783          	ld	a5,120(a0)
   100fc:	08053803          	ld	a6,128(a0)
   10100:	08853883          	ld	a7,136(a0)
   10104:	09053903          	ld	s2,144(a0)
   10108:	09853983          	ld	s3,152(a0)
   1010c:	0a053a03          	ld	s4,160(a0)
   10110:	0a853a83          	ld	s5,168(a0)
   10114:	0b053b03          	ld	s6,176(a0)
   10118:	0b853b83          	ld	s7,184(a0)
   1011c:	0c053c03          	ld	s8,192(a0)
   10120:	0c853c83          	ld	s9,200(a0)
   10124:	0d053d03          	ld	s10,208(a0)
   10128:	0d853d83          	ld	s11,216(a0)
   1012c:	0e053e03          	ld	t3,224(a0)
   10130:	0e853e83          	ld	t4,232(a0)
   10134:	0f053f03          	ld	t5,240(a0)
   10138:	0f853f83          	ld	t6,248(a0)
   1013c:	05053503          	ld	a0,80(a0)
   10140:	10200073          	sret

0000000000010144 <trap_entry>:
   10144:	14011173          	csrrw	sp,sscratch,sp
   10148:	00113423          	sd	ra,8(sp)
   1014c:	00313c23          	sd	gp,24(sp)
   10150:	02413023          	sd	tp,32(sp)
   10154:	02513423          	sd	t0,40(sp)
   10158:	02613823          	sd	t1,48(sp)
   1015c:	02713c23          	sd	t2,56(sp)
   10160:	04813023          	sd	s0,64(sp)
   10164:	04913423          	sd	s1,72(sp)
   10168:	04a13823          	sd	a0,80(sp)
   1016c:	04b13c23          	sd	a1,88(sp)
   10170:	06c13023          	sd	a2,96(sp)
   10174:	06d13423          	sd	a3,104(sp)
   10178:	06e13823          	sd	a4,112(sp)
   1017c:	06f13c23          	sd	a5,120(sp)
   10180:	09013023          	sd	a6,128(sp)
   10184:	09113423          	sd	a7,136(sp)
   10188:	09213823          	sd	s2,144(sp)
   1018c:	09313c23          	sd	s3,152(sp)
   10190:	0b413023          	sd	s4,160(sp)
   10194:	0b513423          	sd	s5,168(sp)
   10198:	0b613823          	sd	s6,176(sp)
   1019c:	0b713c23          	sd	s7,184(sp)
   101a0:	0d813023          	sd	s8,192(sp)
   101a4:	0d913423          	sd	s9,200(sp)
   101a8:	0da13823          	sd	s10,208(sp)
   101ac:	0db13c23          	sd	s11,216(sp)
   101b0:	0fc13023          	sd	t3,224(sp)
   101b4:	0fd13423          	sd	t4,232(sp)
   101b8:	0fe13823          	sd	t5,240(sp)
   101bc:	0ff13c23          	sd	t6,248(sp)
   101c0:	140112f3          	csrrw	t0,sscratch,sp
   101c4:	00513823          	sd	t0,16(sp)
   101c8:	100022f3          	csrr	t0,sstatus
   101cc:	10513023          	sd	t0,256(sp)
   101d0:	141022f3          	csrr	t0,sepc
   101d4:	10513423          	sd	t0,264(sp)
   101d8:	143022f3          	csrr	t0,stval
   101dc:	10513823          	sd	t0,272(sp)
   101e0:	142022f3          	csrr	t0,scause
   101e4:	10513c23          	sd	t0,280(sp)
   101e8:	00010513          	mv	a0,sp
   101ec:	3380206f          	j	12524 <handle_trap>

Disassembly of section .text:

0000000000012000 <memcpy>:
   12000:	00c5e7b3          	or	a5,a1,a2
   12004:	00f567b3          	or	a5,a0,a5
   12008:	0077f793          	andi	a5,a5,7
   1200c:	00c506b3          	add	a3,a0,a2
   12010:	02078463          	beqz	a5,12038 <memcpy+0x38>
   12014:	00c58633          	add	a2,a1,a2
   12018:	00050793          	mv	a5,a0
   1201c:	02d57e63          	bgeu	a0,a3,12058 <memcpy+0x58>
   12020:	0005c703          	lbu	a4,0(a1)
   12024:	00158593          	addi	a1,a1,1
   12028:	00178793          	addi	a5,a5,1
   1202c:	fee78fa3          	sb	a4,-1(a5)
   12030:	fec598e3          	bne	a1,a2,12020 <memcpy+0x20>
   12034:	00008067          	ret
   12038:	fed57ee3          	bgeu	a0,a3,12034 <memcpy+0x34>
   1203c:	00050793          	mv	a5,a0
   12040:	0005b703          	ld	a4,0(a1)
   12044:	00878793          	addi	a5,a5,8
   12048:	00858593          	addi	a1,a1,8
   1204c:	fee7bc23          	sd	a4,-8(a5)
   12050:	fed7e8e3          	bltu	a5,a3,12040 <memcpy+0x40>
   12054:	00008067          	ret
   12058:	00008067          	ret

000000000001205c <memset>:
   1205c:	ff010113          	addi	sp,sp,-16
   12060:	00c567b3          	or	a5,a0,a2
   12064:	00813023          	sd	s0,0(sp)
   12068:	00113423          	sd	ra,8(sp)
   1206c:	0077f793          	andi	a5,a5,7
   12070:	00050413          	mv	s0,a0
   12074:	00c50733          	add	a4,a0,a2
   12078:	02078263          	beqz	a5,1209c <memset+0x40>
   1207c:	00e57663          	bgeu	a0,a4,12088 <memset+0x2c>
   12080:	0ff5f593          	andi	a1,a1,255
   12084:	fd9ff0ef          	jal	ra,1205c <memset>
   12088:	00813083          	ld	ra,8(sp)
   1208c:	00040513          	mv	a0,s0
   12090:	00013403          	ld	s0,0(sp)
   12094:	01010113          	addi	sp,sp,16
   12098:	00008067          	ret
   1209c:	0ff5f593          	andi	a1,a1,255
   120a0:	00859693          	slli	a3,a1,0x8
   120a4:	00b6e5b3          	or	a1,a3,a1
   120a8:	01059693          	slli	a3,a1,0x10
   120ac:	00b6e5b3          	or	a1,a3,a1
   120b0:	02059693          	slli	a3,a1,0x20
   120b4:	00b6e6b3          	or	a3,a3,a1
   120b8:	fce578e3          	bgeu	a0,a4,12088 <memset+0x2c>
   120bc:	00050793          	mv	a5,a0
   120c0:	00878793          	addi	a5,a5,8
   120c4:	fed7bc23          	sd	a3,-8(a5)
   120c8:	fee7ece3          	bltu	a5,a4,120c0 <memset+0x64>
   120cc:	00813083          	ld	ra,8(sp)
   120d0:	00040513          	mv	a0,s0
   120d4:	00013403          	ld	s0,0(sp)
   120d8:	01010113          	addi	sp,sp,16
   120dc:	00008067          	ret

00000000000120e0 <strlen>:
   120e0:	00054783          	lbu	a5,0(a0)
   120e4:	00078e63          	beqz	a5,12100 <strlen+0x20>
   120e8:	00050793          	mv	a5,a0
   120ec:	0017c703          	lbu	a4,1(a5)
   120f0:	00178793          	addi	a5,a5,1
   120f4:	fe071ce3          	bnez	a4,120ec <strlen+0xc>
   120f8:	40a78533          	sub	a0,a5,a0
   120fc:	00008067          	ret
   12100:	00000513          	li	a0,0
   12104:	00008067          	ret

0000000000012108 <strcmp>:
   12108:	00054783          	lbu	a5,0(a0)
   1210c:	00158593          	addi	a1,a1,1
   12110:	00150513          	addi	a0,a0,1
   12114:	fff5c703          	lbu	a4,-1(a1)
   12118:	00078a63          	beqz	a5,1212c <strcmp+0x24>
   1211c:	fee786e3          	beq	a5,a4,12108 <strcmp>
   12120:	0007851b          	sext.w	a0,a5
   12124:	40e5053b          	subw	a0,a0,a4
   12128:	00008067          	ret
   1212c:	00000513          	li	a0,0
   12130:	ff5ff06f          	j	12124 <strcmp+0x1c>

0000000000012134 <memcmp>:
   12134:	00b567b3          	or	a5,a0,a1
   12138:	0077f793          	andi	a5,a5,7
   1213c:	02079e63          	bnez	a5,12178 <memcmp+0x44>
   12140:	ff867813          	andi	a6,a2,-8
   12144:	01050833          	add	a6,a0,a6
   12148:	03057863          	bgeu	a0,a6,12178 <memcmp+0x44>
   1214c:	00050793          	mv	a5,a0
   12150:	0100006f          	j	12160 <memcmp+0x2c>
   12154:	00878793          	addi	a5,a5,8
   12158:	00858593          	addi	a1,a1,8
   1215c:	0107f863          	bgeu	a5,a6,1216c <memcmp+0x38>
   12160:	0007b683          	ld	a3,0(a5)
   12164:	0005b703          	ld	a4,0(a1)
   12168:	fee686e3          	beq	a3,a4,12154 <memcmp+0x20>
   1216c:	40a78533          	sub	a0,a5,a0
   12170:	40a60633          	sub	a2,a2,a0
   12174:	00078513          	mv	a0,a5
   12178:	00c58633          	add	a2,a1,a2
   1217c:	0140006f          	j	12190 <memcmp+0x5c>
   12180:	0005c703          	lbu	a4,0(a1)
   12184:	fff54783          	lbu	a5,-1(a0)
   12188:	00158593          	addi	a1,a1,1
   1218c:	00e79a63          	bne	a5,a4,121a0 <memcmp+0x6c>
   12190:	00150513          	addi	a0,a0,1
   12194:	fec596e3          	bne	a1,a2,12180 <memcmp+0x4c>
   12198:	00000513          	li	a0,0
   1219c:	00008067          	ret
   121a0:	40e7853b          	subw	a0,a5,a4
   121a4:	00008067          	ret

00000000000121a8 <strcpy>:
   121a8:	00050793          	mv	a5,a0
   121ac:	0005c703          	lbu	a4,0(a1)
   121b0:	00178793          	addi	a5,a5,1
   121b4:	00158593          	addi	a1,a1,1
   121b8:	fee78fa3          	sb	a4,-1(a5)
   121bc:	fe0718e3          	bnez	a4,121ac <strcpy+0x4>
   121c0:	00008067          	ret

00000000000121c4 <atol>:
   121c4:	00054703          	lbu	a4,0(a0)
   121c8:	02000693          	li	a3,32
   121cc:	00050793          	mv	a5,a0
   121d0:	00d71863          	bne	a4,a3,121e0 <atol+0x1c>
   121d4:	0017c703          	lbu	a4,1(a5)
   121d8:	00178793          	addi	a5,a5,1
   121dc:	fed70ce3          	beq	a4,a3,121d4 <atol+0x10>
   121e0:	02d00693          	li	a3,45
   121e4:	06d70063          	beq	a4,a3,12244 <atol+0x80>
   121e8:	02b00693          	li	a3,43
   121ec:	04d70063          	beq	a4,a3,1222c <atol+0x68>
   121f0:	0007c683          	lbu	a3,0(a5)
   121f4:	00000593          	li	a1,0
   121f8:	04068263          	beqz	a3,1223c <atol+0x78>
   121fc:	00000513          	li	a0,0
   12200:	00178793          	addi	a5,a5,1
   12204:	fd06861b          	addiw	a2,a3,-48
   12208:	00251713          	slli	a4,a0,0x2
   1220c:	0007c683          	lbu	a3,0(a5)
   12210:	00a70533          	add	a0,a4,a0
   12214:	00151513          	slli	a0,a0,0x1
   12218:	00a60533          	add	a0,a2,a0
   1221c:	fe0692e3          	bnez	a3,12200 <atol+0x3c>
   12220:	02058063          	beqz	a1,12240 <atol+0x7c>
   12224:	40a00533          	neg	a0,a0
   12228:	00008067          	ret
   1222c:	0017c683          	lbu	a3,1(a5)
   12230:	00000593          	li	a1,0
   12234:	00178793          	addi	a5,a5,1
   12238:	fc0692e3          	bnez	a3,121fc <atol+0x38>
   1223c:	00000513          	li	a0,0
   12240:	00008067          	ret
   12244:	0017c683          	lbu	a3,1(a5)
   12248:	00100593          	li	a1,1
   1224c:	00178793          	addi	a5,a5,1
   12250:	fa0696e3          	bnez	a3,121fc <atol+0x38>
   12254:	00000513          	li	a0,0
   12258:	fe9ff06f          	j	12240 <atol+0x7c>

000000000001225c <cputstring>:
   1225c:	00054783          	lbu	a5,0(a0)
   12260:	04078063          	beqz	a5,122a0 <cputstring+0x44>
   12264:	10100593          	li	a1,257
   12268:	fffff717          	auipc	a4,0xfffff
   1226c:	d9870713          	addi	a4,a4,-616 # 11000 <tohost>
   12270:	03059593          	slli	a1,a1,0x30
   12274:	00073603          	ld	a2,0(a4)
   12278:	00150513          	addi	a0,a0,1
   1227c:	00b7e6b3          	or	a3,a5,a1
   12280:	00060a63          	beqz	a2,12294 <cputstring+0x38>
   12284:	fffff797          	auipc	a5,0xfffff
   12288:	da07be23          	sd	zero,-580(a5) # 11040 <fromhost>
   1228c:	00073783          	ld	a5,0(a4)
   12290:	fe079ae3          	bnez	a5,12284 <cputstring+0x28>
   12294:	00d73023          	sd	a3,0(a4)
   12298:	00054783          	lbu	a5,0(a0)
   1229c:	fc079ce3          	bnez	a5,12274 <cputstring+0x18>
   122a0:	00008067          	ret

00000000000122a4 <terminate>:
   122a4:	fffff717          	auipc	a4,0xfffff
   122a8:	d5c70713          	addi	a4,a4,-676 # 11000 <tohost>
   122ac:	00073783          	ld	a5,0(a4)
   122b0:	00078a63          	beqz	a5,122c4 <terminate+0x20>
   122b4:	fffff797          	auipc	a5,0xfffff
   122b8:	d807b623          	sd	zero,-628(a5) # 11040 <fromhost>
   122bc:	00073783          	ld	a5,0(a4)
   122c0:	fe079ae3          	bnez	a5,122b4 <terminate+0x10>
   122c4:	00a73023          	sd	a0,0(a4)
   122c8:	0000006f          	j	122c8 <terminate+0x24>

00000000000122cc <wtf>:
   122cc:	ff010113          	addi	sp,sp,-16
   122d0:	34900513          	li	a0,841
   122d4:	00113423          	sd	ra,8(sp)
   122d8:	fcdff0ef          	jal	ra,122a4 <terminate>

00000000000122dc <printhex>:
   122dc:	fe010113          	addi	sp,sp,-32
   122e0:	00810613          	addi	a2,sp,8
   122e4:	01710793          	addi	a5,sp,23
   122e8:	00900813          	li	a6,9
   122ec:	0080006f          	j	122f4 <printhex+0x18>
   122f0:	00070793          	mv	a5,a4
   122f4:	00f57693          	andi	a3,a0,15
   122f8:	00068713          	mv	a4,a3
   122fc:	03000593          	li	a1,48
   12300:	00d87463          	bgeu	a6,a3,12308 <printhex+0x2c>
   12304:	05700593          	li	a1,87
   12308:	00b7073b          	addw	a4,a4,a1
   1230c:	00e78023          	sb	a4,0(a5)
   12310:	00455513          	srli	a0,a0,0x4
   12314:	fff78713          	addi	a4,a5,-1
   12318:	fcf61ce3          	bne	a2,a5,122f0 <printhex+0x14>
   1231c:	00814783          	lbu	a5,8(sp)
   12320:	00010c23          	sb	zero,24(sp)
   12324:	04078263          	beqz	a5,12368 <printhex+0x8c>
   12328:	10100513          	li	a0,257
   1232c:	00060693          	mv	a3,a2
   12330:	fffff717          	auipc	a4,0xfffff
   12334:	cd070713          	addi	a4,a4,-816 # 11000 <tohost>
   12338:	03051513          	slli	a0,a0,0x30
   1233c:	00073583          	ld	a1,0(a4)
   12340:	00168693          	addi	a3,a3,1
   12344:	00a7e633          	or	a2,a5,a0
   12348:	00058a63          	beqz	a1,1235c <printhex+0x80>
   1234c:	fffff797          	auipc	a5,0xfffff
   12350:	ce07ba23          	sd	zero,-780(a5) # 11040 <fromhost>
   12354:	00073783          	ld	a5,0(a4)
   12358:	fe079ae3          	bnez	a5,1234c <printhex+0x70>
   1235c:	0006c783          	lbu	a5,0(a3)
   12360:	00c73023          	sd	a2,0(a4)
   12364:	fc079ce3          	bnez	a5,1233c <printhex+0x60>
   12368:	02010113          	addi	sp,sp,32
   1236c:	00008067          	ret

0000000000012370 <handle_fault>:
   12370:	ff010113          	addi	sp,sp,-16
   12374:	fffff6b7          	lui	a3,0xfffff
   12378:	00113423          	sd	ra,8(sp)
   1237c:	00d50733          	add	a4,a0,a3
   12380:	0003e7b7          	lui	a5,0x3e
   12384:	14f77863          	bgeu	a4,a5,124d4 <handle_fault+0x164>
   12388:	00c55893          	srli	a7,a0,0xc
   1238c:	60088813          	addi	a6,a7,1536
   12390:	00003617          	auipc	a2,0x3
   12394:	c7060613          	addi	a2,a2,-912 # 15000 <pt>
   12398:	00381793          	slli	a5,a6,0x3
   1239c:	00f607b3          	add	a5,a2,a5
   123a0:	0007b703          	ld	a4,0(a5) # 3e000 <freelist_head+0x24ff8>
   123a4:	00d57533          	and	a0,a0,a3
   123a8:	0e071063          	bnez	a4,12488 <handle_fault+0x118>
   123ac:	00007697          	auipc	a3,0x7
   123b0:	c5c68693          	addi	a3,a3,-932 # 19008 <freelist_head>
   123b4:	0006b703          	ld	a4,0(a3)
   123b8:	14070263          	beqz	a4,124fc <handle_fault+0x18c>
   123bc:	00873783          	ld	a5,8(a4)
   123c0:	00007597          	auipc	a1,0x7
   123c4:	c405b583          	ld	a1,-960(a1) # 19000 <freelist_tail>
   123c8:	00f6b023          	sd	a5,0(a3)
   123cc:	0eb78e63          	beq	a5,a1,124c8 <handle_fault+0x158>
   123d0:	00073783          	ld	a5,0(a4)
   123d4:	00381593          	slli	a1,a6,0x3
   123d8:	00b605b3          	add	a1,a2,a1
   123dc:	00c7d793          	srli	a5,a5,0xc
   123e0:	00a79793          	slli	a5,a5,0xa
   123e4:	0df7e313          	ori	t1,a5,223
   123e8:	01f7e693          	ori	a3,a5,31
   123ec:	0065b023          	sd	t1,0(a1)
   123f0:	12050073          	sfence.vma	a0
   123f4:	00002797          	auipc	a5,0x2
   123f8:	c0c78793          	addi	a5,a5,-1012 # 14000 <user_mapping>
   123fc:	00489893          	slli	a7,a7,0x4
   12400:	011788b3          	add	a7,a5,a7
   12404:	0008b783          	ld	a5,0(a7)
   12408:	10079463          	bnez	a5,12510 <handle_fault+0x1a0>
   1240c:	00073783          	ld	a5,0(a4)
   12410:	00f8b023          	sd	a5,0(a7)
   12414:	00873783          	ld	a5,8(a4)
   12418:	00f8b423          	sd	a5,8(a7)
   1241c:	000408b7          	lui	a7,0x40
   12420:	1008a8f3          	csrrs	a7,sstatus,a7
   12424:	ffe007b7          	lui	a5,0xffe00
   12428:	00f507b3          	add	a5,a0,a5
   1242c:	000015b7          	lui	a1,0x1
   12430:	00050713          	mv	a4,a0
   12434:	00b785b3          	add	a1,a5,a1
   12438:	0007bf03          	ld	t5,0(a5) # ffffffffffe00000 <freelist_head+0xffffffffffde6ff8>
   1243c:	0087be83          	ld	t4,8(a5)
   12440:	0107be03          	ld	t3,16(a5)
   12444:	0187b303          	ld	t1,24(a5)
   12448:	01e73023          	sd	t5,0(a4)
   1244c:	01d73423          	sd	t4,8(a4)
   12450:	01c73823          	sd	t3,16(a4)
   12454:	00673c23          	sd	t1,24(a4)
   12458:	02078793          	addi	a5,a5,32
   1245c:	02070713          	addi	a4,a4,32
   12460:	fcb79ce3          	bne	a5,a1,12438 <handle_fault+0xc8>
   12464:	10089073          	csrw	sstatus,a7
   12468:	00381813          	slli	a6,a6,0x3
   1246c:	01060633          	add	a2,a2,a6
   12470:	00d63023          	sd	a3,0(a2)
   12474:	12050073          	sfence.vma	a0
   12478:	0000100f          	fence.i
   1247c:	00813083          	ld	ra,8(sp)
   12480:	01010113          	addi	sp,sp,16
   12484:	00008067          	ret
   12488:	04077693          	andi	a3,a4,64
   1248c:	02068663          	beqz	a3,124b8 <handle_fault+0x148>
   12490:	08077693          	andi	a3,a4,128
   12494:	04069a63          	bnez	a3,124e8 <handle_fault+0x178>
   12498:	00f00693          	li	a3,15
   1249c:	04d59663          	bne	a1,a3,124e8 <handle_fault+0x178>
   124a0:	08076713          	ori	a4,a4,128
   124a4:	00e7b023          	sd	a4,0(a5)
   124a8:	12050073          	sfence.vma	a0
   124ac:	00813083          	ld	ra,8(sp)
   124b0:	01010113          	addi	sp,sp,16
   124b4:	00008067          	ret
   124b8:	04076713          	ori	a4,a4,64
   124bc:	00e7b023          	sd	a4,0(a5)
   124c0:	12050073          	sfence.vma	a0
   124c4:	fe9ff06f          	j	124ac <handle_fault+0x13c>
   124c8:	00007797          	auipc	a5,0x7
   124cc:	b207bc23          	sd	zero,-1224(a5) # 19000 <freelist_tail>
   124d0:	f01ff06f          	j	123d0 <handle_fault+0x60>
   124d4:	00001517          	auipc	a0,0x1
   124d8:	39450513          	addi	a0,a0,916 # 13868 <pass+0x10>
   124dc:	d81ff0ef          	jal	ra,1225c <cputstring>
   124e0:	00300513          	li	a0,3
   124e4:	dc1ff0ef          	jal	ra,122a4 <terminate>
   124e8:	00001517          	auipc	a0,0x1
   124ec:	3c850513          	addi	a0,a0,968 # 138b0 <pass+0x58>
   124f0:	d6dff0ef          	jal	ra,1225c <cputstring>
   124f4:	00300513          	li	a0,3
   124f8:	dadff0ef          	jal	ra,122a4 <terminate>
   124fc:	00001517          	auipc	a0,0x1
   12500:	3fc50513          	addi	a0,a0,1020 # 138f8 <pass+0xa0>
   12504:	d59ff0ef          	jal	ra,1225c <cputstring>
   12508:	00300513          	li	a0,3
   1250c:	d99ff0ef          	jal	ra,122a4 <terminate>
   12510:	00001517          	auipc	a0,0x1
   12514:	40050513          	addi	a0,a0,1024 # 13910 <pass+0xb8>
   12518:	d45ff0ef          	jal	ra,1225c <cputstring>
   1251c:	00300513          	li	a0,3
   12520:	d85ff0ef          	jal	ra,122a4 <terminate>

0000000000012524 <handle_trap>:
   12524:	11853583          	ld	a1,280(a0)
   12528:	f8010113          	addi	sp,sp,-128
   1252c:	06813823          	sd	s0,112(sp)
   12530:	06113c23          	sd	ra,120(sp)
   12534:	06913423          	sd	s1,104(sp)
   12538:	07213023          	sd	s2,96(sp)
   1253c:	05313c23          	sd	s3,88(sp)
   12540:	05413823          	sd	s4,80(sp)
   12544:	05513423          	sd	s5,72(sp)
   12548:	05613023          	sd	s6,64(sp)
   1254c:	03713c23          	sd	s7,56(sp)
   12550:	03813823          	sd	s8,48(sp)
   12554:	03913423          	sd	s9,40(sp)
   12558:	03a13023          	sd	s10,32(sp)
   1255c:	01b13c23          	sd	s11,24(sp)
   12560:	00800793          	li	a5,8
   12564:	00050413          	mv	s0,a0
   12568:	0ef58a63          	beq	a1,a5,1265c <handle_trap+0x138>
   1256c:	00200793          	li	a5,2
   12570:	06f58063          	beq	a1,a5,125d0 <handle_trap+0xac>
   12574:	ff458793          	addi	a5,a1,-12 # ff4 <_start-0xf00c>
   12578:	00100713          	li	a4,1
   1257c:	00f77663          	bgeu	a4,a5,12588 <handle_trap+0x64>
   12580:	00f00793          	li	a5,15
   12584:	1af59263          	bne	a1,a5,12728 <handle_trap+0x204>
   12588:	11043503          	ld	a0,272(s0)
   1258c:	de5ff0ef          	jal	ra,12370 <handle_fault>
   12590:	00040513          	mv	a0,s0
   12594:	07013403          	ld	s0,112(sp)
   12598:	07813083          	ld	ra,120(sp)
   1259c:	06813483          	ld	s1,104(sp)
   125a0:	06013903          	ld	s2,96(sp)
   125a4:	05813983          	ld	s3,88(sp)
   125a8:	05013a03          	ld	s4,80(sp)
   125ac:	04813a83          	ld	s5,72(sp)
   125b0:	04013b03          	ld	s6,64(sp)
   125b4:	03813b83          	ld	s7,56(sp)
   125b8:	03013c03          	ld	s8,48(sp)
   125bc:	02813c83          	ld	s9,40(sp)
   125c0:	02013d03          	ld	s10,32(sp)
   125c4:	01813d83          	ld	s11,24(sp)
   125c8:	08010113          	addi	sp,sp,128
   125cc:	af1fd06f          	j	100bc <pop_tf>
   125d0:	10853703          	ld	a4,264(a0)
   125d4:	00377793          	andi	a5,a4,3
   125d8:	06079863          	bnez	a5,12648 <handle_trap+0x124>
   125dc:	008007ef          	jal	a5,125e4 <handle_trap+0xc0>
   125e0:	00301073          	fscsr	zero
   125e4:	00072703          	lw	a4,0(a4)
   125e8:	0007a783          	lw	a5,0(a5)
   125ec:	04f70a63          	beq	a4,a5,12640 <handle_trap+0x11c>
   125f0:	10100513          	li	a0,257
   125f4:	04100793          	li	a5,65
   125f8:	00001697          	auipc	a3,0x1
   125fc:	35868693          	addi	a3,a3,856 # 13950 <pass+0xf8>
   12600:	fffff717          	auipc	a4,0xfffff
   12604:	a0070713          	addi	a4,a4,-1536 # 11000 <tohost>
   12608:	03051513          	slli	a0,a0,0x30
   1260c:	00073583          	ld	a1,0(a4)
   12610:	00168693          	addi	a3,a3,1
   12614:	00a7e633          	or	a2,a5,a0
   12618:	00058a63          	beqz	a1,1262c <handle_trap+0x108>
   1261c:	fffff797          	auipc	a5,0xfffff
   12620:	a207b223          	sd	zero,-1500(a5) # 11040 <fromhost>
   12624:	00073783          	ld	a5,0(a4)
   12628:	fe079ae3          	bnez	a5,1261c <handle_trap+0xf8>
   1262c:	0006c783          	lbu	a5,0(a3)
   12630:	00c73023          	sd	a2,0(a4)
   12634:	fc079ce3          	bnez	a5,1260c <handle_trap+0xe8>
   12638:	00300513          	li	a0,3
   1263c:	c69ff0ef          	jal	ra,122a4 <terminate>
   12640:	00100513          	li	a0,1
   12644:	c61ff0ef          	jal	ra,122a4 <terminate>
   12648:	00001517          	auipc	a0,0x1
   1264c:	3a850513          	addi	a0,a0,936 # 139f0 <pass+0x198>
   12650:	c0dff0ef          	jal	ra,1225c <cputstring>
   12654:	00300513          	li	a0,3
   12658:	c4dff0ef          	jal	ra,122a4 <terminate>
   1265c:	05052903          	lw	s2,80(a0)
   12660:	00001c37          	lui	s8,0x1
   12664:	00002497          	auipc	s1,0x2
   12668:	99c48493          	addi	s1,s1,-1636 # 14000 <user_mapping>
   1266c:	00003b97          	auipc	s7,0x3
   12670:	994b8b93          	addi	s7,s7,-1644 # 15000 <pt>
   12674:	00040b37          	lui	s6,0x40
   12678:	ffe00ab7          	lui	s5,0xffe00
   1267c:	00007d97          	auipc	s11,0x7
   12680:	984d8d93          	addi	s11,s11,-1660 # 19000 <freelist_tail>
   12684:	00007a17          	auipc	s4,0x7
   12688:	984a0a13          	addi	s4,s4,-1660 # 19008 <freelist_head>
   1268c:	0003f9b7          	lui	s3,0x3f
   12690:	0180006f          	j	126a8 <handle_trap+0x184>
   12694:	00f73423          	sd	a5,8(a4)
   12698:	00fdb023          	sd	a5,0(s11)
   1269c:	000017b7          	lui	a5,0x1
   126a0:	00fc0c33          	add	s8,s8,a5
   126a4:	0b3c0e63          	beq	s8,s3,12760 <handle_trap+0x23c>
   126a8:	00cc5793          	srli	a5,s8,0xc
   126ac:	00479413          	slli	s0,a5,0x4
   126b0:	00848733          	add	a4,s1,s0
   126b4:	00073703          	ld	a4,0(a4)
   126b8:	fe0702e3          	beqz	a4,1269c <handle_trap+0x178>
   126bc:	60078793          	addi	a5,a5,1536 # 1600 <_start-0xea00>
   126c0:	00379793          	slli	a5,a5,0x3
   126c4:	00fb87b3          	add	a5,s7,a5
   126c8:	0007bc83          	ld	s9,0(a5)
   126cc:	040cf793          	andi	a5,s9,64
   126d0:	06078e63          	beqz	a5,1274c <handle_trap+0x228>
   126d4:	100b2d73          	csrrs	s10,sstatus,s6
   126d8:	00001637          	lui	a2,0x1
   126dc:	015c05b3          	add	a1,s8,s5
   126e0:	000c0513          	mv	a0,s8
   126e4:	00b13423          	sd	a1,8(sp)
   126e8:	a4dff0ef          	jal	ra,12134 <memcmp>
   126ec:	00050e63          	beqz	a0,12708 <handle_trap+0x1e4>
   126f0:	080cfc93          	andi	s9,s9,128
   126f4:	00813583          	ld	a1,8(sp)
   126f8:	040c8063          	beqz	s9,12738 <handle_trap+0x214>
   126fc:	00001637          	lui	a2,0x1
   12700:	000c0513          	mv	a0,s8
   12704:	8fdff0ef          	jal	ra,12000 <memcpy>
   12708:	008487b3          	add	a5,s1,s0
   1270c:	100d1073          	csrw	sstatus,s10
   12710:	000db703          	ld	a4,0(s11)
   12714:	0007b023          	sd	zero,0(a5)
   12718:	f6071ee3          	bnez	a4,12694 <handle_trap+0x170>
   1271c:	00fdb023          	sd	a5,0(s11)
   12720:	00fa3023          	sd	a5,0(s4)
   12724:	f79ff06f          	j	1269c <handle_trap+0x178>
   12728:	00001517          	auipc	a0,0x1
   1272c:	2f050513          	addi	a0,a0,752 # 13a18 <pass+0x1c0>
   12730:	b2dff0ef          	jal	ra,1225c <cputstring>
   12734:	f05ff06f          	j	12638 <handle_trap+0x114>
   12738:	00001517          	auipc	a0,0x1
   1273c:	28050513          	addi	a0,a0,640 # 139b8 <pass+0x160>
   12740:	b1dff0ef          	jal	ra,1225c <cputstring>
   12744:	00300513          	li	a0,3
   12748:	b5dff0ef          	jal	ra,122a4 <terminate>
   1274c:	00001517          	auipc	a0,0x1
   12750:	23450513          	addi	a0,a0,564 # 13980 <pass+0x128>
   12754:	b09ff0ef          	jal	ra,1225c <cputstring>
   12758:	00300513          	li	a0,3
   1275c:	b49ff0ef          	jal	ra,122a4 <terminate>
   12760:	00090513          	mv	a0,s2
   12764:	b41ff0ef          	jal	ra,122a4 <terminate>

0000000000012768 <vm_boot>:
   12768:	f14027f3          	csrr	a5,mhartid
   1276c:	18079a63          	bnez	a5,12900 <vm_boot+0x198>
   12770:	00005797          	auipc	a5,0x5
   12774:	89078793          	addi	a5,a5,-1904 # 17000 <pt+0x2000>
   12778:	ed010113          	addi	sp,sp,-304
   1277c:	00c7d793          	srli	a5,a5,0xc
   12780:	12813023          	sd	s0,288(sp)
   12784:	00006817          	auipc	a6,0x6
   12788:	87c80813          	addi	a6,a6,-1924 # 18000 <pt+0x3000>
   1278c:	00050413          	mv	s0,a0
   12790:	00a79793          	slli	a5,a5,0xa
   12794:	00004517          	auipc	a0,0x4
   12798:	86c50513          	addi	a0,a0,-1940 # 16000 <pt+0x1000>
   1279c:	12113423          	sd	ra,296(sp)
   127a0:	00c55693          	srli	a3,a0,0xc
   127a4:	00c85713          	srli	a4,a6,0xc
   127a8:	0017e793          	ori	a5,a5,1
   127ac:	00003897          	auipc	a7,0x3
   127b0:	85488893          	addi	a7,a7,-1964 # 15000 <pt>
   127b4:	fff00613          	li	a2,-1
   127b8:	fef53c23          	sd	a5,-8(a0)
   127bc:	00a69693          	slli	a3,a3,0xa
   127c0:	00a71713          	slli	a4,a4,0xa
   127c4:	200007b7          	lui	a5,0x20000
   127c8:	0016e693          	ori	a3,a3,1
   127cc:	00176713          	ori	a4,a4,1
   127d0:	00c8d593          	srli	a1,a7,0xc
   127d4:	03f61313          	slli	t1,a2,0x3f
   127d8:	0cf78793          	addi	a5,a5,207 # 200000cf <freelist_head+0x1ffe70c7>
   127dc:	fef83c23          	sd	a5,-8(a6)
   127e0:	00d8b023          	sd	a3,0(a7)
   127e4:	00e53023          	sd	a4,0(a0)
   127e8:	0065e7b3          	or	a5,a1,t1
   127ec:	18079073          	csrw	satp,a5
   127f0:	18002773          	csrr	a4,satp
   127f4:	14e79e63          	bne	a5,a4,12950 <vm_boot+0x1e8>
   127f8:	00b65613          	srli	a2,a2,0xb
   127fc:	01f00793          	li	a5,31
   12800:	00000297          	auipc	t0,0x0
   12804:	01428293          	addi	t0,t0,20 # 12814 <vm_boot+0xac>
   12808:	305292f3          	csrrw	t0,mtvec,t0
   1280c:	3b061073          	csrw	pmpaddr0,a2
   12810:	3a079073          	csrw	pmpcfg0,a5
   12814:	30529073          	csrw	mtvec,t0
   12818:	bff00813          	li	a6,-1025
   1281c:	01581813          	slli	a6,a6,0x15
   12820:	ffffe797          	auipc	a5,0xffffe
   12824:	92478793          	addi	a5,a5,-1756 # 10144 <trap_entry>
   12828:	010787b3          	add	a5,a5,a6
   1282c:	10579073          	csrw	stvec,a5
   12830:	340027f3          	csrr	a5,mscratch
   12834:	010787b3          	add	a5,a5,a6
   12838:	14079073          	csrw	sscratch,a5
   1283c:	0000b7b7          	lui	a5,0xb
   12840:	1007879b          	addiw	a5,a5,256
   12844:	30279073          	csrw	medeleg,a5
   12848:	0001e7b7          	lui	a5,0x1e
   1284c:	6007879b          	addiw	a5,a5,1536
   12850:	30079073          	csrw	mstatus,a5
   12854:	30405073          	csrwi	mie,0
   12858:	00002717          	auipc	a4,0x2
   1285c:	b9870713          	addi	a4,a4,-1128 # 143f0 <freelist_nodes>
   12860:	3e080793          	addi	a5,a6,992
   12864:	010706b3          	add	a3,a4,a6
   12868:	00f707b3          	add	a5,a4,a5
   1286c:	000808b7          	lui	a7,0x80
   12870:	00006617          	auipc	a2,0x6
   12874:	78d63c23          	sd	a3,1944(a2) # 19008 <freelist_head>
   12878:	00002317          	auipc	t1,0x2
   1287c:	f6830313          	addi	t1,t1,-152 # 147e0 <freelist_nodes+0x3f0>
   12880:	00006697          	auipc	a3,0x6
   12884:	78f6b023          	sd	a5,1920(a3) # 19000 <freelist_tail>
   12888:	03f88893          	addi	a7,a7,63 # 8003f <freelist_head+0x67037>
   1288c:	00300793          	li	a5,3
   12890:	01080813          	addi	a6,a6,16
   12894:	0017d613          	srli	a2,a5,0x1
   12898:	011786b3          	add	a3,a5,a7
   1289c:	00f647b3          	xor	a5,a2,a5
   128a0:	010705b3          	add	a1,a4,a6
   128a4:	00c69693          	slli	a3,a3,0xc
   128a8:	00579793          	slli	a5,a5,0x5
   128ac:	00d73023          	sd	a3,0(a4)
   128b0:	00b73423          	sd	a1,8(a4)
   128b4:	0207f793          	andi	a5,a5,32
   128b8:	01070713          	addi	a4,a4,16
   128bc:	00f667b3          	or	a5,a2,a5
   128c0:	fce31ae3          	bne	t1,a4,12894 <vm_boot+0x12c>
   128c4:	12000613          	li	a2,288
   128c8:	00000593          	li	a1,0
   128cc:	00010513          	mv	a0,sp
   128d0:	00002797          	auipc	a5,0x2
   128d4:	f007b423          	sd	zero,-248(a5) # 147d8 <freelist_nodes+0x3e8>
   128d8:	f84ff0ef          	jal	ra,1205c <memset>
   128dc:	800007b7          	lui	a5,0x80000
   128e0:	00f40433          	add	s0,s0,a5
   128e4:	00010513          	mv	a0,sp
   128e8:	10813423          	sd	s0,264(sp)
   128ec:	fd0fd0ef          	jal	ra,100bc <pop_tf>
   128f0:	12813083          	ld	ra,296(sp)
   128f4:	12013403          	ld	s0,288(sp)
   128f8:	13010113          	addi	sp,sp,304
   128fc:	00008067          	ret
   12900:	00100713          	li	a4,1
   12904:	0163a7b7          	lui	a5,0x163a
   12908:	00080637          	lui	a2,0x80
   1290c:	84d78793          	addi	a5,a5,-1971 # 163984d <freelist_head+0x1620845>
   12910:	ffc60613          	addi	a2,a2,-4 # 7fffc <freelist_head+0x66ff4>
   12914:	01f71513          	slli	a0,a4,0x1f
   12918:	03e71693          	slli	a3,a4,0x3e
   1291c:	01c0006f          	j	12938 <vm_boot+0x1d0>
   12920:	0007202f          	amoadd.w	zero,zero,(a4)
   12924:	0017d713          	srli	a4,a5,0x1
   12928:	00e7c7b3          	xor	a5,a5,a4
   1292c:	03e79793          	slli	a5,a5,0x3e
   12930:	00d7f7b3          	and	a5,a5,a3
   12934:	00e7e7b3          	or	a5,a5,a4
   12938:	00c7f733          	and	a4,a5,a2
   1293c:	0017f593          	andi	a1,a5,1
   12940:	00a70733          	add	a4,a4,a0
   12944:	fc059ee3          	bnez	a1,12920 <vm_boot+0x1b8>
   12948:	00072003          	lw	zero,0(a4)
   1294c:	fd9ff06f          	j	12924 <vm_boot+0x1bc>
   12950:	00001517          	auipc	a0,0x1
   12954:	0f850513          	addi	a0,a0,248 # 13a48 <pass+0x1f0>
   12958:	905ff0ef          	jal	ra,1225c <cputstring>
   1295c:	00300513          	li	a0,3
   12960:	945ff0ef          	jal	ra,122a4 <terminate>

0000000000012964 <extra_boot>:
   12964:	00008067          	ret

0000000000012968 <userstart>:
   12968:	00301073          	fscsr	zero

000000000001296c <test_10>:
   1296c:	002475b7          	lui	a1,0x247
   12970:	8ad5859b          	addiw	a1,a1,-1875
   12974:	00e59593          	slli	a1,a1,0xe
   12978:	c4d58593          	addi	a1,a1,-947 # 246c4d <freelist_head+0x22dc45>
   1297c:	00c59593          	slli	a1,a1,0xc
   12980:	5e758593          	addi	a1,a1,1511
   12984:	00d59593          	slli	a1,a1,0xd
   12988:	ef058593          	addi	a1,a1,-272
   1298c:	00000613          	li	a2,0
   12990:	f20580d3          	fmv.d.x	ft1,a1
   12994:	f2060153          	fmv.d.x	ft2,a2
   12998:	22208053          	fsgnj.d	ft0,ft1,ft2
   1299c:	e2000553          	fmv.x.d	a0,ft0
   129a0:	002473b7          	lui	t2,0x247
   129a4:	8ad3839b          	addiw	t2,t2,-1875
   129a8:	00e39393          	slli	t2,t2,0xe
   129ac:	c4d38393          	addi	t2,t2,-947 # 246c4d <freelist_head+0x22dc45>
   129b0:	00c39393          	slli	t2,t2,0xc
   129b4:	5e738393          	addi	t2,t2,1511
   129b8:	00d39393          	slli	t2,t2,0xd
   129bc:	ef038393          	addi	t2,t2,-272
   129c0:	00a00193          	li	gp,10
   129c4:	687512e3          	bne	a0,t2,13848 <fail>

00000000000129c8 <test_11>:
   129c8:	002475b7          	lui	a1,0x247
   129cc:	8ad5859b          	addiw	a1,a1,-1875
   129d0:	00e59593          	slli	a1,a1,0xe
   129d4:	c4d58593          	addi	a1,a1,-947 # 246c4d <freelist_head+0x22dc45>
   129d8:	00c59593          	slli	a1,a1,0xc
   129dc:	5e758593          	addi	a1,a1,1511
   129e0:	00d59593          	slli	a1,a1,0xd
   129e4:	ef058593          	addi	a1,a1,-272
   129e8:	fff00613          	li	a2,-1
   129ec:	f20580d3          	fmv.d.x	ft1,a1
   129f0:	f2060153          	fmv.d.x	ft2,a2
   129f4:	22208053          	fsgnj.d	ft0,ft1,ft2
   129f8:	e2000553          	fmv.x.d	a0,ft0
   129fc:	ff2473b7          	lui	t2,0xff247
   12a00:	8ad3839b          	addiw	t2,t2,-1875
   12a04:	00e39393          	slli	t2,t2,0xe
   12a08:	c4d38393          	addi	t2,t2,-947 # ffffffffff246c4d <freelist_head+0xffffffffff22dc45>
   12a0c:	00c39393          	slli	t2,t2,0xc
   12a10:	5e738393          	addi	t2,t2,1511
   12a14:	00d39393          	slli	t2,t2,0xd
   12a18:	ef038393          	addi	t2,t2,-272
   12a1c:	00b00193          	li	gp,11
   12a20:	627514e3          	bne	a0,t2,13848 <fail>

0000000000012a24 <test_12>:
   12a24:	ff2475b7          	lui	a1,0xff247
   12a28:	8ad5859b          	addiw	a1,a1,-1875
   12a2c:	00e59593          	slli	a1,a1,0xe
   12a30:	c4d58593          	addi	a1,a1,-947 # ffffffffff246c4d <freelist_head+0xffffffffff22dc45>
   12a34:	00c59593          	slli	a1,a1,0xc
   12a38:	5e758593          	addi	a1,a1,1511
   12a3c:	00d59593          	slli	a1,a1,0xd
   12a40:	ef058593          	addi	a1,a1,-272
   12a44:	00000613          	li	a2,0
   12a48:	f20580d3          	fmv.d.x	ft1,a1
   12a4c:	f2060153          	fmv.d.x	ft2,a2
   12a50:	22208053          	fsgnj.d	ft0,ft1,ft2
   12a54:	e2000553          	fmv.x.d	a0,ft0
   12a58:	002473b7          	lui	t2,0x247
   12a5c:	8ad3839b          	addiw	t2,t2,-1875
   12a60:	00e39393          	slli	t2,t2,0xe
   12a64:	c4d38393          	addi	t2,t2,-947 # 246c4d <freelist_head+0x22dc45>
   12a68:	00c39393          	slli	t2,t2,0xc
   12a6c:	5e738393          	addi	t2,t2,1511
   12a70:	00d39393          	slli	t2,t2,0xd
   12a74:	ef038393          	addi	t2,t2,-272
   12a78:	00c00193          	li	gp,12
   12a7c:	5c7516e3          	bne	a0,t2,13848 <fail>

0000000000012a80 <test_13>:
   12a80:	ff2475b7          	lui	a1,0xff247
   12a84:	8ad5859b          	addiw	a1,a1,-1875
   12a88:	00e59593          	slli	a1,a1,0xe
   12a8c:	c4d58593          	addi	a1,a1,-947 # ffffffffff246c4d <freelist_head+0xffffffffff22dc45>
   12a90:	00c59593          	slli	a1,a1,0xc
   12a94:	5e758593          	addi	a1,a1,1511
   12a98:	00d59593          	slli	a1,a1,0xd
   12a9c:	ef058593          	addi	a1,a1,-272
   12aa0:	fff00613          	li	a2,-1
   12aa4:	f20580d3          	fmv.d.x	ft1,a1
   12aa8:	f2060153          	fmv.d.x	ft2,a2
   12aac:	22208053          	fsgnj.d	ft0,ft1,ft2
   12ab0:	e2000553          	fmv.x.d	a0,ft0
   12ab4:	ff2473b7          	lui	t2,0xff247
   12ab8:	8ad3839b          	addiw	t2,t2,-1875
   12abc:	00e39393          	slli	t2,t2,0xe
   12ac0:	c4d38393          	addi	t2,t2,-947 # ffffffffff246c4d <freelist_head+0xffffffffff22dc45>
   12ac4:	00c39393          	slli	t2,t2,0xc
   12ac8:	5e738393          	addi	t2,t2,1511
   12acc:	00d39393          	slli	t2,t2,0xd
   12ad0:	ef038393          	addi	t2,t2,-272
   12ad4:	00d00193          	li	gp,13
   12ad8:	567518e3          	bne	a0,t2,13848 <fail>

0000000000012adc <test_20>:
   12adc:	002475b7          	lui	a1,0x247
   12ae0:	8ad5859b          	addiw	a1,a1,-1875
   12ae4:	00e59593          	slli	a1,a1,0xe
   12ae8:	c4d58593          	addi	a1,a1,-947 # 246c4d <freelist_head+0x22dc45>
   12aec:	00c59593          	slli	a1,a1,0xc
   12af0:	5e758593          	addi	a1,a1,1511
   12af4:	00d59593          	slli	a1,a1,0xd
   12af8:	ef058593          	addi	a1,a1,-272
   12afc:	00000613          	li	a2,0
   12b00:	f20580d3          	fmv.d.x	ft1,a1
   12b04:	f2060153          	fmv.d.x	ft2,a2
   12b08:	22209053          	fsgnjn.d	ft0,ft1,ft2
   12b0c:	e2000553          	fmv.x.d	a0,ft0
   12b10:	ff2473b7          	lui	t2,0xff247
   12b14:	8ad3839b          	addiw	t2,t2,-1875
   12b18:	00e39393          	slli	t2,t2,0xe
   12b1c:	c4d38393          	addi	t2,t2,-947 # ffffffffff246c4d <freelist_head+0xffffffffff22dc45>
   12b20:	00c39393          	slli	t2,t2,0xc
   12b24:	5e738393          	addi	t2,t2,1511
   12b28:	00d39393          	slli	t2,t2,0xd
   12b2c:	ef038393          	addi	t2,t2,-272
   12b30:	01400193          	li	gp,20
   12b34:	50751ae3          	bne	a0,t2,13848 <fail>

0000000000012b38 <test_21>:
   12b38:	002475b7          	lui	a1,0x247
   12b3c:	8ad5859b          	addiw	a1,a1,-1875
   12b40:	00e59593          	slli	a1,a1,0xe
   12b44:	c4d58593          	addi	a1,a1,-947 # 246c4d <freelist_head+0x22dc45>
   12b48:	00c59593          	slli	a1,a1,0xc
   12b4c:	5e758593          	addi	a1,a1,1511
   12b50:	00d59593          	slli	a1,a1,0xd
   12b54:	ef058593          	addi	a1,a1,-272
   12b58:	fff00613          	li	a2,-1
   12b5c:	f20580d3          	fmv.d.x	ft1,a1
   12b60:	f2060153          	fmv.d.x	ft2,a2
   12b64:	22209053          	fsgnjn.d	ft0,ft1,ft2
   12b68:	e2000553          	fmv.x.d	a0,ft0
   12b6c:	002473b7          	lui	t2,0x247
   12b70:	8ad3839b          	addiw	t2,t2,-1875
   12b74:	00e39393          	slli	t2,t2,0xe
   12b78:	c4d38393          	addi	t2,t2,-947 # 246c4d <freelist_head+0x22dc45>
   12b7c:	00c39393          	slli	t2,t2,0xc
   12b80:	5e738393          	addi	t2,t2,1511
   12b84:	00d39393          	slli	t2,t2,0xd
   12b88:	ef038393          	addi	t2,t2,-272
   12b8c:	01500193          	li	gp,21
   12b90:	4a751ce3          	bne	a0,t2,13848 <fail>

0000000000012b94 <test_22>:
   12b94:	ff2475b7          	lui	a1,0xff247
   12b98:	8ad5859b          	addiw	a1,a1,-1875
   12b9c:	00e59593          	slli	a1,a1,0xe
   12ba0:	c4d58593          	addi	a1,a1,-947 # ffffffffff246c4d <freelist_head+0xffffffffff22dc45>
   12ba4:	00c59593          	slli	a1,a1,0xc
   12ba8:	5e758593          	addi	a1,a1,1511
   12bac:	00d59593          	slli	a1,a1,0xd
   12bb0:	ef058593          	addi	a1,a1,-272
   12bb4:	00000613          	li	a2,0
   12bb8:	f20580d3          	fmv.d.x	ft1,a1
   12bbc:	f2060153          	fmv.d.x	ft2,a2
   12bc0:	22209053          	fsgnjn.d	ft0,ft1,ft2
   12bc4:	e2000553          	fmv.x.d	a0,ft0
   12bc8:	ff2473b7          	lui	t2,0xff247
   12bcc:	8ad3839b          	addiw	t2,t2,-1875
   12bd0:	00e39393          	slli	t2,t2,0xe
   12bd4:	c4d38393          	addi	t2,t2,-947 # ffffffffff246c4d <freelist_head+0xffffffffff22dc45>
   12bd8:	00c39393          	slli	t2,t2,0xc
   12bdc:	5e738393          	addi	t2,t2,1511
   12be0:	00d39393          	slli	t2,t2,0xd
   12be4:	ef038393          	addi	t2,t2,-272
   12be8:	01600193          	li	gp,22
   12bec:	44751ee3          	bne	a0,t2,13848 <fail>

0000000000012bf0 <test_23>:
   12bf0:	ff2475b7          	lui	a1,0xff247
   12bf4:	8ad5859b          	addiw	a1,a1,-1875
   12bf8:	00e59593          	slli	a1,a1,0xe
   12bfc:	c4d58593          	addi	a1,a1,-947 # ffffffffff246c4d <freelist_head+0xffffffffff22dc45>
   12c00:	00c59593          	slli	a1,a1,0xc
   12c04:	5e758593          	addi	a1,a1,1511
   12c08:	00d59593          	slli	a1,a1,0xd
   12c0c:	ef058593          	addi	a1,a1,-272
   12c10:	fff00613          	li	a2,-1
   12c14:	f20580d3          	fmv.d.x	ft1,a1
   12c18:	f2060153          	fmv.d.x	ft2,a2
   12c1c:	22209053          	fsgnjn.d	ft0,ft1,ft2
   12c20:	e2000553          	fmv.x.d	a0,ft0
   12c24:	002473b7          	lui	t2,0x247
   12c28:	8ad3839b          	addiw	t2,t2,-1875
   12c2c:	00e39393          	slli	t2,t2,0xe
   12c30:	c4d38393          	addi	t2,t2,-947 # 246c4d <freelist_head+0x22dc45>
   12c34:	00c39393          	slli	t2,t2,0xc
   12c38:	5e738393          	addi	t2,t2,1511
   12c3c:	00d39393          	slli	t2,t2,0xd
   12c40:	ef038393          	addi	t2,t2,-272
   12c44:	01700193          	li	gp,23
   12c48:	407510e3          	bne	a0,t2,13848 <fail>

0000000000012c4c <test_30>:
   12c4c:	002475b7          	lui	a1,0x247
   12c50:	8ad5859b          	addiw	a1,a1,-1875
   12c54:	00e59593          	slli	a1,a1,0xe
   12c58:	c4d58593          	addi	a1,a1,-947 # 246c4d <freelist_head+0x22dc45>
   12c5c:	00c59593          	slli	a1,a1,0xc
   12c60:	5e758593          	addi	a1,a1,1511
   12c64:	00d59593          	slli	a1,a1,0xd
   12c68:	ef058593          	addi	a1,a1,-272
   12c6c:	00000613          	li	a2,0
   12c70:	f20580d3          	fmv.d.x	ft1,a1
   12c74:	f2060153          	fmv.d.x	ft2,a2
   12c78:	2220a053          	fsgnjx.d	ft0,ft1,ft2
   12c7c:	e2000553          	fmv.x.d	a0,ft0
   12c80:	002473b7          	lui	t2,0x247
   12c84:	8ad3839b          	addiw	t2,t2,-1875
   12c88:	00e39393          	slli	t2,t2,0xe
   12c8c:	c4d38393          	addi	t2,t2,-947 # 246c4d <freelist_head+0x22dc45>
   12c90:	00c39393          	slli	t2,t2,0xc
   12c94:	5e738393          	addi	t2,t2,1511
   12c98:	00d39393          	slli	t2,t2,0xd
   12c9c:	ef038393          	addi	t2,t2,-272
   12ca0:	01e00193          	li	gp,30
   12ca4:	3a7512e3          	bne	a0,t2,13848 <fail>

0000000000012ca8 <test_31>:
   12ca8:	002475b7          	lui	a1,0x247
   12cac:	8ad5859b          	addiw	a1,a1,-1875
   12cb0:	00e59593          	slli	a1,a1,0xe
   12cb4:	c4d58593          	addi	a1,a1,-947 # 246c4d <freelist_head+0x22dc45>
   12cb8:	00c59593          	slli	a1,a1,0xc
   12cbc:	5e758593          	addi	a1,a1,1511
   12cc0:	00d59593          	slli	a1,a1,0xd
   12cc4:	ef058593          	addi	a1,a1,-272
   12cc8:	fff00613          	li	a2,-1
   12ccc:	f20580d3          	fmv.d.x	ft1,a1
   12cd0:	f2060153          	fmv.d.x	ft2,a2
   12cd4:	2220a053          	fsgnjx.d	ft0,ft1,ft2
   12cd8:	e2000553          	fmv.x.d	a0,ft0
   12cdc:	ff2473b7          	lui	t2,0xff247
   12ce0:	8ad3839b          	addiw	t2,t2,-1875
   12ce4:	00e39393          	slli	t2,t2,0xe
   12ce8:	c4d38393          	addi	t2,t2,-947 # ffffffffff246c4d <freelist_head+0xffffffffff22dc45>
   12cec:	00c39393          	slli	t2,t2,0xc
   12cf0:	5e738393          	addi	t2,t2,1511
   12cf4:	00d39393          	slli	t2,t2,0xd
   12cf8:	ef038393          	addi	t2,t2,-272
   12cfc:	01f00193          	li	gp,31
   12d00:	347514e3          	bne	a0,t2,13848 <fail>

0000000000012d04 <test_32>:
   12d04:	ff2475b7          	lui	a1,0xff247
   12d08:	8ad5859b          	addiw	a1,a1,-1875
   12d0c:	00e59593          	slli	a1,a1,0xe
   12d10:	c4d58593          	addi	a1,a1,-947 # ffffffffff246c4d <freelist_head+0xffffffffff22dc45>
   12d14:	00c59593          	slli	a1,a1,0xc
   12d18:	5e758593          	addi	a1,a1,1511
   12d1c:	00d59593          	slli	a1,a1,0xd
   12d20:	ef058593          	addi	a1,a1,-272
   12d24:	00000613          	li	a2,0
   12d28:	f20580d3          	fmv.d.x	ft1,a1
   12d2c:	f2060153          	fmv.d.x	ft2,a2
   12d30:	2220a053          	fsgnjx.d	ft0,ft1,ft2
   12d34:	e2000553          	fmv.x.d	a0,ft0
   12d38:	ff2473b7          	lui	t2,0xff247
   12d3c:	8ad3839b          	addiw	t2,t2,-1875
   12d40:	00e39393          	slli	t2,t2,0xe
   12d44:	c4d38393          	addi	t2,t2,-947 # ffffffffff246c4d <freelist_head+0xffffffffff22dc45>
   12d48:	00c39393          	slli	t2,t2,0xc
   12d4c:	5e738393          	addi	t2,t2,1511
   12d50:	00d39393          	slli	t2,t2,0xd
   12d54:	ef038393          	addi	t2,t2,-272
   12d58:	02000193          	li	gp,32
   12d5c:	2e7516e3          	bne	a0,t2,13848 <fail>

0000000000012d60 <test_33>:
   12d60:	ff2475b7          	lui	a1,0xff247
   12d64:	8ad5859b          	addiw	a1,a1,-1875
   12d68:	00e59593          	slli	a1,a1,0xe
   12d6c:	c4d58593          	addi	a1,a1,-947 # ffffffffff246c4d <freelist_head+0xffffffffff22dc45>
   12d70:	00c59593          	slli	a1,a1,0xc
   12d74:	5e758593          	addi	a1,a1,1511
   12d78:	00d59593          	slli	a1,a1,0xd
   12d7c:	ef058593          	addi	a1,a1,-272
   12d80:	fff00613          	li	a2,-1
   12d84:	f20580d3          	fmv.d.x	ft1,a1
   12d88:	f2060153          	fmv.d.x	ft2,a2
   12d8c:	2220a053          	fsgnjx.d	ft0,ft1,ft2
   12d90:	e2000553          	fmv.x.d	a0,ft0
   12d94:	002473b7          	lui	t2,0x247
   12d98:	8ad3839b          	addiw	t2,t2,-1875
   12d9c:	00e39393          	slli	t2,t2,0xe
   12da0:	c4d38393          	addi	t2,t2,-947 # 246c4d <freelist_head+0x22dc45>
   12da4:	00c39393          	slli	t2,t2,0xc
   12da8:	5e738393          	addi	t2,t2,1511
   12dac:	00d39393          	slli	t2,t2,0xd
   12db0:	ef038393          	addi	t2,t2,-272
   12db4:	02100193          	li	gp,33
   12db8:	287518e3          	bne	a0,t2,13848 <fail>

0000000000012dbc <test_40>:
   12dbc:	0010059b          	addiw	a1,zero,1
   12dc0:	02659593          	slli	a1,a1,0x26
   12dc4:	f0958593          	addi	a1,a1,-247
   12dc8:	00d59593          	slli	a1,a1,0xd
   12dcc:	34558593          	addi	a1,a1,837
   12dd0:	00c59593          	slli	a1,a1,0xc
   12dd4:	67858593          	addi	a1,a1,1656
   12dd8:	00000613          	li	a2,0
   12ddc:	f20580d3          	fmv.d.x	ft1,a1
   12de0:	f2060153          	fmv.d.x	ft2,a2
   12de4:	20208053          	fsgnj.s	ft0,ft1,ft2
   12de8:	e0000553          	fmv.x.w	a0,ft0
   12dec:	7fc003b7          	lui	t2,0x7fc00
   12df0:	02800193          	li	gp,40
   12df4:	24751ae3          	bne	a0,t2,13848 <fail>

0000000000012df8 <test_140>:
   12df8:	0010059b          	addiw	a1,zero,1
   12dfc:	02659593          	slli	a1,a1,0x26
   12e00:	f0958593          	addi	a1,a1,-247
   12e04:	00d59593          	slli	a1,a1,0xd
   12e08:	34558593          	addi	a1,a1,837
   12e0c:	00c59593          	slli	a1,a1,0xc
   12e10:	67858593          	addi	a1,a1,1656
   12e14:	00000613          	li	a2,0
   12e18:	f20580d3          	fmv.d.x	ft1,a1
   12e1c:	f2060153          	fmv.d.x	ft2,a2
   12e20:	20208053          	fsgnj.s	ft0,ft1,ft2
   12e24:	e2000553          	fmv.x.d	a0,ft0
   12e28:	dff0039b          	addiw	t2,zero,-513
   12e2c:	01639393          	slli	t2,t2,0x16
   12e30:	08c00193          	li	gp,140
   12e34:	20751ae3          	bne	a0,t2,13848 <fail>

0000000000012e38 <test_41>:
   12e38:	ffe125b7          	lui	a1,0xffe12
   12e3c:	3455859b          	addiw	a1,a1,837
   12e40:	00c59593          	slli	a1,a1,0xc
   12e44:	67858593          	addi	a1,a1,1656 # ffffffffffe12678 <freelist_head+0xffffffffffdf9670>
   12e48:	00000613          	li	a2,0
   12e4c:	f20580d3          	fmv.d.x	ft1,a1
   12e50:	f2060153          	fmv.d.x	ft2,a2
   12e54:	20208053          	fsgnj.s	ft0,ft1,ft2
   12e58:	e0000553          	fmv.x.w	a0,ft0
   12e5c:	7fc003b7          	lui	t2,0x7fc00
   12e60:	02900193          	li	gp,41
   12e64:	1e7512e3          	bne	a0,t2,13848 <fail>

0000000000012e68 <test_141>:
   12e68:	ffe125b7          	lui	a1,0xffe12
   12e6c:	3455859b          	addiw	a1,a1,837
   12e70:	00c59593          	slli	a1,a1,0xc
   12e74:	67858593          	addi	a1,a1,1656 # ffffffffffe12678 <freelist_head+0xffffffffffdf9670>
   12e78:	00000613          	li	a2,0
   12e7c:	f20580d3          	fmv.d.x	ft1,a1
   12e80:	f2060153          	fmv.d.x	ft2,a2
   12e84:	20208053          	fsgnj.s	ft0,ft1,ft2
   12e88:	e2000553          	fmv.x.d	a0,ft0
   12e8c:	dff0039b          	addiw	t2,zero,-513
   12e90:	01639393          	slli	t2,t2,0x16
   12e94:	08d00193          	li	gp,141
   12e98:	1a7518e3          	bne	a0,t2,13848 <fail>

0000000000012e9c <test_42>:
   12e9c:	0010059b          	addiw	a1,zero,1
   12ea0:	02659593          	slli	a1,a1,0x26
   12ea4:	f8958593          	addi	a1,a1,-119
   12ea8:	00d59593          	slli	a1,a1,0xd
   12eac:	34558593          	addi	a1,a1,837
   12eb0:	00c59593          	slli	a1,a1,0xc
   12eb4:	67858593          	addi	a1,a1,1656
   12eb8:	00000613          	li	a2,0
   12ebc:	f20580d3          	fmv.d.x	ft1,a1
   12ec0:	f2060153          	fmv.d.x	ft2,a2
   12ec4:	20208053          	fsgnj.s	ft0,ft1,ft2
   12ec8:	e0000553          	fmv.x.w	a0,ft0
   12ecc:	7fc003b7          	lui	t2,0x7fc00
   12ed0:	02a00193          	li	gp,42
   12ed4:	16751ae3          	bne	a0,t2,13848 <fail>

0000000000012ed8 <test_142>:
   12ed8:	0010059b          	addiw	a1,zero,1
   12edc:	02659593          	slli	a1,a1,0x26
   12ee0:	f8958593          	addi	a1,a1,-119
   12ee4:	00d59593          	slli	a1,a1,0xd
   12ee8:	34558593          	addi	a1,a1,837
   12eec:	00c59593          	slli	a1,a1,0xc
   12ef0:	67858593          	addi	a1,a1,1656
   12ef4:	00000613          	li	a2,0
   12ef8:	f20580d3          	fmv.d.x	ft1,a1
   12efc:	f2060153          	fmv.d.x	ft2,a2
   12f00:	20208053          	fsgnj.s	ft0,ft1,ft2
   12f04:	e2000553          	fmv.x.d	a0,ft0
   12f08:	dff0039b          	addiw	t2,zero,-513
   12f0c:	01639393          	slli	t2,t2,0x16
   12f10:	08e00193          	li	gp,142
   12f14:	12751ae3          	bne	a0,t2,13848 <fail>

0000000000012f18 <test_43>:
   12f18:	fff125b7          	lui	a1,0xfff12
   12f1c:	3455859b          	addiw	a1,a1,837
   12f20:	00c59593          	slli	a1,a1,0xc
   12f24:	67858593          	addi	a1,a1,1656 # fffffffffff12678 <freelist_head+0xffffffffffef9670>
   12f28:	00000613          	li	a2,0
   12f2c:	f20580d3          	fmv.d.x	ft1,a1
   12f30:	f2060153          	fmv.d.x	ft2,a2
   12f34:	20208053          	fsgnj.s	ft0,ft1,ft2
   12f38:	e0000553          	fmv.x.w	a0,ft0
   12f3c:	123453b7          	lui	t2,0x12345
   12f40:	6783839b          	addiw	t2,t2,1656
   12f44:	02b00193          	li	gp,43
   12f48:	107510e3          	bne	a0,t2,13848 <fail>

0000000000012f4c <test_143>:
   12f4c:	fff125b7          	lui	a1,0xfff12
   12f50:	3455859b          	addiw	a1,a1,837
   12f54:	00c59593          	slli	a1,a1,0xc
   12f58:	67858593          	addi	a1,a1,1656 # fffffffffff12678 <freelist_head+0xffffffffffef9670>
   12f5c:	00000613          	li	a2,0
   12f60:	f20580d3          	fmv.d.x	ft1,a1
   12f64:	f2060153          	fmv.d.x	ft2,a2
   12f68:	20208053          	fsgnj.s	ft0,ft1,ft2
   12f6c:	e2000553          	fmv.x.d	a0,ft0
   12f70:	fff123b7          	lui	t2,0xfff12
   12f74:	3453839b          	addiw	t2,t2,837
   12f78:	00c39393          	slli	t2,t2,0xc
   12f7c:	67838393          	addi	t2,t2,1656 # fffffffffff12678 <freelist_head+0xffffffffffef9670>
   12f80:	08f00193          	li	gp,143
   12f84:	0c7512e3          	bne	a0,t2,13848 <fail>

0000000000012f88 <test_50>:
   12f88:	0010059b          	addiw	a1,zero,1
   12f8c:	02659593          	slli	a1,a1,0x26
   12f90:	f0958593          	addi	a1,a1,-247
   12f94:	00d59593          	slli	a1,a1,0xd
   12f98:	34558593          	addi	a1,a1,837
   12f9c:	00c59593          	slli	a1,a1,0xc
   12fa0:	67858593          	addi	a1,a1,1656
   12fa4:	0010061b          	addiw	a2,zero,1
   12fa8:	01f61613          	slli	a2,a2,0x1f
   12fac:	f20580d3          	fmv.d.x	ft1,a1
   12fb0:	f2060153          	fmv.d.x	ft2,a2
   12fb4:	20208053          	fsgnj.s	ft0,ft1,ft2
   12fb8:	e0000553          	fmv.x.w	a0,ft0
   12fbc:	7fc003b7          	lui	t2,0x7fc00
   12fc0:	03200193          	li	gp,50
   12fc4:	087512e3          	bne	a0,t2,13848 <fail>

0000000000012fc8 <test_150>:
   12fc8:	0010059b          	addiw	a1,zero,1
   12fcc:	02659593          	slli	a1,a1,0x26
   12fd0:	f0958593          	addi	a1,a1,-247
   12fd4:	00d59593          	slli	a1,a1,0xd
   12fd8:	34558593          	addi	a1,a1,837
   12fdc:	00c59593          	slli	a1,a1,0xc
   12fe0:	67858593          	addi	a1,a1,1656
   12fe4:	0010061b          	addiw	a2,zero,1
   12fe8:	01f61613          	slli	a2,a2,0x1f
   12fec:	f20580d3          	fmv.d.x	ft1,a1
   12ff0:	f2060153          	fmv.d.x	ft2,a2
   12ff4:	20208053          	fsgnj.s	ft0,ft1,ft2
   12ff8:	e2000553          	fmv.x.d	a0,ft0
   12ffc:	dff0039b          	addiw	t2,zero,-513
   13000:	01639393          	slli	t2,t2,0x16
   13004:	09600193          	li	gp,150
   13008:	047510e3          	bne	a0,t2,13848 <fail>

000000000001300c <test_51>:
   1300c:	ffe125b7          	lui	a1,0xffe12
   13010:	3455859b          	addiw	a1,a1,837
   13014:	00c59593          	slli	a1,a1,0xc
   13018:	67858593          	addi	a1,a1,1656 # ffffffffffe12678 <freelist_head+0xffffffffffdf9670>
   1301c:	0010061b          	addiw	a2,zero,1
   13020:	01f61613          	slli	a2,a2,0x1f
   13024:	f20580d3          	fmv.d.x	ft1,a1
   13028:	f2060153          	fmv.d.x	ft2,a2
   1302c:	20208053          	fsgnj.s	ft0,ft1,ft2
   13030:	e0000553          	fmv.x.w	a0,ft0
   13034:	7fc003b7          	lui	t2,0x7fc00
   13038:	03300193          	li	gp,51
   1303c:	007516e3          	bne	a0,t2,13848 <fail>

0000000000013040 <test_151>:
   13040:	ffe125b7          	lui	a1,0xffe12
   13044:	3455859b          	addiw	a1,a1,837
   13048:	00c59593          	slli	a1,a1,0xc
   1304c:	67858593          	addi	a1,a1,1656 # ffffffffffe12678 <freelist_head+0xffffffffffdf9670>
   13050:	0010061b          	addiw	a2,zero,1
   13054:	01f61613          	slli	a2,a2,0x1f
   13058:	f20580d3          	fmv.d.x	ft1,a1
   1305c:	f2060153          	fmv.d.x	ft2,a2
   13060:	20208053          	fsgnj.s	ft0,ft1,ft2
   13064:	e2000553          	fmv.x.d	a0,ft0
   13068:	dff0039b          	addiw	t2,zero,-513
   1306c:	01639393          	slli	t2,t2,0x16
   13070:	09700193          	li	gp,151
   13074:	7c751a63          	bne	a0,t2,13848 <fail>

0000000000013078 <test_52>:
   13078:	0010059b          	addiw	a1,zero,1
   1307c:	02659593          	slli	a1,a1,0x26
   13080:	f8958593          	addi	a1,a1,-119
   13084:	00d59593          	slli	a1,a1,0xd
   13088:	34558593          	addi	a1,a1,837
   1308c:	00c59593          	slli	a1,a1,0xc
   13090:	67858593          	addi	a1,a1,1656
   13094:	0010061b          	addiw	a2,zero,1
   13098:	01f61613          	slli	a2,a2,0x1f
   1309c:	f20580d3          	fmv.d.x	ft1,a1
   130a0:	f2060153          	fmv.d.x	ft2,a2
   130a4:	20208053          	fsgnj.s	ft0,ft1,ft2
   130a8:	e0000553          	fmv.x.w	a0,ft0
   130ac:	7fc003b7          	lui	t2,0x7fc00
   130b0:	03400193          	li	gp,52
   130b4:	78751a63          	bne	a0,t2,13848 <fail>

00000000000130b8 <test_152>:
   130b8:	0010059b          	addiw	a1,zero,1
   130bc:	02659593          	slli	a1,a1,0x26
   130c0:	f8958593          	addi	a1,a1,-119
   130c4:	00d59593          	slli	a1,a1,0xd
   130c8:	34558593          	addi	a1,a1,837
   130cc:	00c59593          	slli	a1,a1,0xc
   130d0:	67858593          	addi	a1,a1,1656
   130d4:	0010061b          	addiw	a2,zero,1
   130d8:	01f61613          	slli	a2,a2,0x1f
   130dc:	f20580d3          	fmv.d.x	ft1,a1
   130e0:	f2060153          	fmv.d.x	ft2,a2
   130e4:	20208053          	fsgnj.s	ft0,ft1,ft2
   130e8:	e2000553          	fmv.x.d	a0,ft0
   130ec:	dff0039b          	addiw	t2,zero,-513
   130f0:	01639393          	slli	t2,t2,0x16
   130f4:	09800193          	li	gp,152
   130f8:	74751863          	bne	a0,t2,13848 <fail>

00000000000130fc <test_53>:
   130fc:	fff125b7          	lui	a1,0xfff12
   13100:	3455859b          	addiw	a1,a1,837
   13104:	00c59593          	slli	a1,a1,0xc
   13108:	67858593          	addi	a1,a1,1656 # fffffffffff12678 <freelist_head+0xffffffffffef9670>
   1310c:	0010061b          	addiw	a2,zero,1
   13110:	01f61613          	slli	a2,a2,0x1f
   13114:	f20580d3          	fmv.d.x	ft1,a1
   13118:	f2060153          	fmv.d.x	ft2,a2
   1311c:	20208053          	fsgnj.s	ft0,ft1,ft2
   13120:	e0000553          	fmv.x.w	a0,ft0
   13124:	123453b7          	lui	t2,0x12345
   13128:	6783839b          	addiw	t2,t2,1656
   1312c:	03500193          	li	gp,53
   13130:	70751c63          	bne	a0,t2,13848 <fail>

0000000000013134 <test_153>:
   13134:	fff125b7          	lui	a1,0xfff12
   13138:	3455859b          	addiw	a1,a1,837
   1313c:	00c59593          	slli	a1,a1,0xc
   13140:	67858593          	addi	a1,a1,1656 # fffffffffff12678 <freelist_head+0xffffffffffef9670>
   13144:	0010061b          	addiw	a2,zero,1
   13148:	01f61613          	slli	a2,a2,0x1f
   1314c:	f20580d3          	fmv.d.x	ft1,a1
   13150:	f2060153          	fmv.d.x	ft2,a2
   13154:	20208053          	fsgnj.s	ft0,ft1,ft2
   13158:	e2000553          	fmv.x.d	a0,ft0
   1315c:	fff123b7          	lui	t2,0xfff12
   13160:	3453839b          	addiw	t2,t2,837
   13164:	00c39393          	slli	t2,t2,0xc
   13168:	67838393          	addi	t2,t2,1656 # fffffffffff12678 <freelist_head+0xffffffffffef9670>
   1316c:	09900193          	li	gp,153
   13170:	6c751c63          	bne	a0,t2,13848 <fail>

0000000000013174 <test_60>:
   13174:	0010059b          	addiw	a1,zero,1
   13178:	02659593          	slli	a1,a1,0x26
   1317c:	f0958593          	addi	a1,a1,-247
   13180:	00d59593          	slli	a1,a1,0xd
   13184:	34558593          	addi	a1,a1,837
   13188:	00c59593          	slli	a1,a1,0xc
   1318c:	67858593          	addi	a1,a1,1656
   13190:	80000637          	lui	a2,0x80000
   13194:	f20580d3          	fmv.d.x	ft1,a1
   13198:	f2060153          	fmv.d.x	ft2,a2
   1319c:	20208053          	fsgnj.s	ft0,ft1,ft2
   131a0:	e0000553          	fmv.x.w	a0,ft0
   131a4:	ffc003b7          	lui	t2,0xffc00
   131a8:	03c00193          	li	gp,60
   131ac:	68751e63          	bne	a0,t2,13848 <fail>

00000000000131b0 <test_160>:
   131b0:	0010059b          	addiw	a1,zero,1
   131b4:	02659593          	slli	a1,a1,0x26
   131b8:	f0958593          	addi	a1,a1,-247
   131bc:	00d59593          	slli	a1,a1,0xd
   131c0:	34558593          	addi	a1,a1,837
   131c4:	00c59593          	slli	a1,a1,0xc
   131c8:	67858593          	addi	a1,a1,1656
   131cc:	80000637          	lui	a2,0x80000
   131d0:	f20580d3          	fmv.d.x	ft1,a1
   131d4:	f2060153          	fmv.d.x	ft2,a2
   131d8:	20208053          	fsgnj.s	ft0,ft1,ft2
   131dc:	e2000553          	fmv.x.d	a0,ft0
   131e0:	ffc003b7          	lui	t2,0xffc00
   131e4:	0a000193          	li	gp,160
   131e8:	66751063          	bne	a0,t2,13848 <fail>

00000000000131ec <test_61>:
   131ec:	ffe125b7          	lui	a1,0xffe12
   131f0:	3455859b          	addiw	a1,a1,837
   131f4:	00c59593          	slli	a1,a1,0xc
   131f8:	67858593          	addi	a1,a1,1656 # ffffffffffe12678 <freelist_head+0xffffffffffdf9670>
   131fc:	80000637          	lui	a2,0x80000
   13200:	f20580d3          	fmv.d.x	ft1,a1
   13204:	f2060153          	fmv.d.x	ft2,a2
   13208:	20208053          	fsgnj.s	ft0,ft1,ft2
   1320c:	e0000553          	fmv.x.w	a0,ft0
   13210:	ffc003b7          	lui	t2,0xffc00
   13214:	03d00193          	li	gp,61
   13218:	62751863          	bne	a0,t2,13848 <fail>

000000000001321c <test_161>:
   1321c:	ffe125b7          	lui	a1,0xffe12
   13220:	3455859b          	addiw	a1,a1,837
   13224:	00c59593          	slli	a1,a1,0xc
   13228:	67858593          	addi	a1,a1,1656 # ffffffffffe12678 <freelist_head+0xffffffffffdf9670>
   1322c:	80000637          	lui	a2,0x80000
   13230:	f20580d3          	fmv.d.x	ft1,a1
   13234:	f2060153          	fmv.d.x	ft2,a2
   13238:	20208053          	fsgnj.s	ft0,ft1,ft2
   1323c:	e2000553          	fmv.x.d	a0,ft0
   13240:	ffc003b7          	lui	t2,0xffc00
   13244:	0a100193          	li	gp,161
   13248:	60751063          	bne	a0,t2,13848 <fail>

000000000001324c <test_62>:
   1324c:	fff125b7          	lui	a1,0xfff12
   13250:	3455859b          	addiw	a1,a1,837
   13254:	00c59593          	slli	a1,a1,0xc
   13258:	67858593          	addi	a1,a1,1656 # fffffffffff12678 <freelist_head+0xffffffffffef9670>
   1325c:	80000637          	lui	a2,0x80000
   13260:	f20580d3          	fmv.d.x	ft1,a1
   13264:	f2060153          	fmv.d.x	ft2,a2
   13268:	20208053          	fsgnj.s	ft0,ft1,ft2
   1326c:	e0000553          	fmv.x.w	a0,ft0
   13270:	923453b7          	lui	t2,0x92345
   13274:	6783839b          	addiw	t2,t2,1656
   13278:	03e00193          	li	gp,62
   1327c:	5c751663          	bne	a0,t2,13848 <fail>

0000000000013280 <test_162>:
   13280:	fff125b7          	lui	a1,0xfff12
   13284:	3455859b          	addiw	a1,a1,837
   13288:	00c59593          	slli	a1,a1,0xc
   1328c:	67858593          	addi	a1,a1,1656 # fffffffffff12678 <freelist_head+0xffffffffffef9670>
   13290:	80000637          	lui	a2,0x80000
   13294:	f20580d3          	fmv.d.x	ft1,a1
   13298:	f2060153          	fmv.d.x	ft2,a2
   1329c:	20208053          	fsgnj.s	ft0,ft1,ft2
   132a0:	e2000553          	fmv.x.d	a0,ft0
   132a4:	923453b7          	lui	t2,0x92345
   132a8:	6783839b          	addiw	t2,t2,1656
   132ac:	0a200193          	li	gp,162
   132b0:	58751c63          	bne	a0,t2,13848 <fail>

00000000000132b4 <test_63>:
   132b4:	fff125b7          	lui	a1,0xfff12
   132b8:	3455859b          	addiw	a1,a1,837
   132bc:	00c59593          	slli	a1,a1,0xc
   132c0:	67858593          	addi	a1,a1,1656 # fffffffffff12678 <freelist_head+0xffffffffffef9670>
   132c4:	0010061b          	addiw	a2,zero,1
   132c8:	02061613          	slli	a2,a2,0x20
   132cc:	fff60613          	addi	a2,a2,-1 # ffffffff7fffffff <freelist_head+0xffffffff7ffe6ff7>
   132d0:	01f61613          	slli	a2,a2,0x1f
   132d4:	f20580d3          	fmv.d.x	ft1,a1
   132d8:	f2060153          	fmv.d.x	ft2,a2
   132dc:	20208053          	fsgnj.s	ft0,ft1,ft2
   132e0:	e0000553          	fmv.x.w	a0,ft0
   132e4:	123453b7          	lui	t2,0x12345
   132e8:	6783839b          	addiw	t2,t2,1656
   132ec:	03f00193          	li	gp,63
   132f0:	54751c63          	bne	a0,t2,13848 <fail>

00000000000132f4 <test_163>:
   132f4:	fff125b7          	lui	a1,0xfff12
   132f8:	3455859b          	addiw	a1,a1,837
   132fc:	00c59593          	slli	a1,a1,0xc
   13300:	67858593          	addi	a1,a1,1656 # fffffffffff12678 <freelist_head+0xffffffffffef9670>
   13304:	0010061b          	addiw	a2,zero,1
   13308:	02061613          	slli	a2,a2,0x20
   1330c:	fff60613          	addi	a2,a2,-1
   13310:	01f61613          	slli	a2,a2,0x1f
   13314:	f20580d3          	fmv.d.x	ft1,a1
   13318:	f2060153          	fmv.d.x	ft2,a2
   1331c:	20208053          	fsgnj.s	ft0,ft1,ft2
   13320:	e2000553          	fmv.x.d	a0,ft0
   13324:	fff123b7          	lui	t2,0xfff12
   13328:	3453839b          	addiw	t2,t2,837
   1332c:	00c39393          	slli	t2,t2,0xc
   13330:	67838393          	addi	t2,t2,1656 # fffffffffff12678 <freelist_head+0xffffffffffef9670>
   13334:	0a300193          	li	gp,163
   13338:	50751863          	bne	a0,t2,13848 <fail>

000000000001333c <test_70>:
   1333c:	fff115b7          	lui	a1,0xfff11
   13340:	1115859b          	addiw	a1,a1,273
   13344:	00c59593          	slli	a1,a1,0xc
   13348:	11158593          	addi	a1,a1,273 # fffffffffff11111 <freelist_head+0xffffffffffef8109>
   1334c:	fff11637          	lui	a2,0xfff11
   13350:	1116061b          	addiw	a2,a2,273
   13354:	00c61613          	slli	a2,a2,0xc
   13358:	11160613          	addi	a2,a2,273 # fffffffffff11111 <freelist_head+0xffffffffffef8109>
   1335c:	f20580d3          	fmv.d.x	ft1,a1
   13360:	f2060153          	fmv.d.x	ft2,a2
   13364:	22208053          	fsgnj.d	ft0,ft1,ft2
   13368:	a0002553          	feq.s	a0,ft0,ft0
   1336c:	fff50513          	addi	a0,a0,-1
   13370:	00051463          	bnez	a0,13378 <test_70+0x3c>
   13374:	e0000553          	fmv.x.w	a0,ft0
   13378:	111113b7          	lui	t2,0x11111
   1337c:	1113839b          	addiw	t2,t2,273
   13380:	04600193          	li	gp,70
   13384:	4c751263          	bne	a0,t2,13848 <fail>

0000000000013388 <test_170>:
   13388:	fff115b7          	lui	a1,0xfff11
   1338c:	1115859b          	addiw	a1,a1,273
   13390:	00c59593          	slli	a1,a1,0xc
   13394:	11158593          	addi	a1,a1,273 # fffffffffff11111 <freelist_head+0xffffffffffef8109>
   13398:	fff11637          	lui	a2,0xfff11
   1339c:	1116061b          	addiw	a2,a2,273
   133a0:	00c61613          	slli	a2,a2,0xc
   133a4:	11160613          	addi	a2,a2,273 # fffffffffff11111 <freelist_head+0xffffffffffef8109>
   133a8:	f20580d3          	fmv.d.x	ft1,a1
   133ac:	f2060153          	fmv.d.x	ft2,a2
   133b0:	22208053          	fsgnj.d	ft0,ft1,ft2
   133b4:	e2000553          	fmv.x.d	a0,ft0
   133b8:	fff113b7          	lui	t2,0xfff11
   133bc:	1113839b          	addiw	t2,t2,273
   133c0:	00c39393          	slli	t2,t2,0xc
   133c4:	11138393          	addi	t2,t2,273 # fffffffffff11111 <freelist_head+0xffffffffffef8109>
   133c8:	0aa00193          	li	gp,170
   133cc:	46751e63          	bne	a0,t2,13848 <fail>

00000000000133d0 <test_71>:
   133d0:	fff115b7          	lui	a1,0xfff11
   133d4:	1115859b          	addiw	a1,a1,273
   133d8:	00c59593          	slli	a1,a1,0xc
   133dc:	11158593          	addi	a1,a1,273 # fffffffffff11111 <freelist_head+0xffffffffffef8109>
   133e0:	0010061b          	addiw	a2,zero,1
   133e4:	02761613          	slli	a2,a2,0x27
   133e8:	f1160613          	addi	a2,a2,-239
   133ec:	00c61613          	slli	a2,a2,0xc
   133f0:	11160613          	addi	a2,a2,273
   133f4:	00c61613          	slli	a2,a2,0xc
   133f8:	11160613          	addi	a2,a2,273
   133fc:	f20580d3          	fmv.d.x	ft1,a1
   13400:	f2060153          	fmv.d.x	ft2,a2
   13404:	22208053          	fsgnj.d	ft0,ft1,ft2
   13408:	a0002553          	feq.s	a0,ft0,ft0
   1340c:	00050513          	mv	a0,a0
   13410:	00051463          	bnez	a0,13418 <test_71+0x48>
   13414:	e0000553          	fmv.x.w	a0,ft0
   13418:	111113b7          	lui	t2,0x11111
   1341c:	1113839b          	addiw	t2,t2,273
   13420:	04700193          	li	gp,71
   13424:	42751263          	bne	a0,t2,13848 <fail>

0000000000013428 <test_171>:
   13428:	fff115b7          	lui	a1,0xfff11
   1342c:	1115859b          	addiw	a1,a1,273
   13430:	00c59593          	slli	a1,a1,0xc
   13434:	11158593          	addi	a1,a1,273 # fffffffffff11111 <freelist_head+0xffffffffffef8109>
   13438:	0010061b          	addiw	a2,zero,1
   1343c:	02761613          	slli	a2,a2,0x27
   13440:	f1160613          	addi	a2,a2,-239
   13444:	00c61613          	slli	a2,a2,0xc
   13448:	11160613          	addi	a2,a2,273
   1344c:	00c61613          	slli	a2,a2,0xc
   13450:	11160613          	addi	a2,a2,273
   13454:	f20580d3          	fmv.d.x	ft1,a1
   13458:	f2060153          	fmv.d.x	ft2,a2
   1345c:	22208053          	fsgnj.d	ft0,ft1,ft2
   13460:	e2000553          	fmv.x.d	a0,ft0
   13464:	0010039b          	addiw	t2,zero,1
   13468:	02739393          	slli	t2,t2,0x27
   1346c:	f1138393          	addi	t2,t2,-239 # 11110f11 <freelist_head+0x110f7f09>
   13470:	00c39393          	slli	t2,t2,0xc
   13474:	11138393          	addi	t2,t2,273
   13478:	00c39393          	slli	t2,t2,0xc
   1347c:	11138393          	addi	t2,t2,273
   13480:	0ab00193          	li	gp,171
   13484:	3c751263          	bne	a0,t2,13848 <fail>

0000000000013488 <test_72>:
   13488:	fff115b7          	lui	a1,0xfff11
   1348c:	1115859b          	addiw	a1,a1,273
   13490:	00c59593          	slli	a1,a1,0xc
   13494:	11158593          	addi	a1,a1,273 # fffffffffff11111 <freelist_head+0xffffffffffef8109>
   13498:	91111637          	lui	a2,0x91111
   1349c:	1116061b          	addiw	a2,a2,273
   134a0:	f20580d3          	fmv.d.x	ft1,a1
   134a4:	f2060153          	fmv.d.x	ft2,a2
   134a8:	22208053          	fsgnj.d	ft0,ft1,ft2
   134ac:	a0002553          	feq.s	a0,ft0,ft0
   134b0:	fff50513          	addi	a0,a0,-1
   134b4:	00051463          	bnez	a0,134bc <test_72+0x34>
   134b8:	e0000553          	fmv.x.w	a0,ft0
   134bc:	111113b7          	lui	t2,0x11111
   134c0:	1113839b          	addiw	t2,t2,273
   134c4:	04800193          	li	gp,72
   134c8:	38751063          	bne	a0,t2,13848 <fail>

00000000000134cc <test_172>:
   134cc:	fff115b7          	lui	a1,0xfff11
   134d0:	1115859b          	addiw	a1,a1,273
   134d4:	00c59593          	slli	a1,a1,0xc
   134d8:	11158593          	addi	a1,a1,273 # fffffffffff11111 <freelist_head+0xffffffffffef8109>
   134dc:	91111637          	lui	a2,0x91111
   134e0:	1116061b          	addiw	a2,a2,273
   134e4:	f20580d3          	fmv.d.x	ft1,a1
   134e8:	f2060153          	fmv.d.x	ft2,a2
   134ec:	22208053          	fsgnj.d	ft0,ft1,ft2
   134f0:	e2000553          	fmv.x.d	a0,ft0
   134f4:	fff113b7          	lui	t2,0xfff11
   134f8:	1113839b          	addiw	t2,t2,273
   134fc:	00c39393          	slli	t2,t2,0xc
   13500:	11138393          	addi	t2,t2,273 # fffffffffff11111 <freelist_head+0xffffffffffef8109>
   13504:	0ac00193          	li	gp,172
   13508:	34751063          	bne	a0,t2,13848 <fail>

000000000001350c <test_73>:
   1350c:	fff115b7          	lui	a1,0xfff11
   13510:	1115859b          	addiw	a1,a1,273
   13514:	00c59593          	slli	a1,a1,0xc
   13518:	11158593          	addi	a1,a1,273 # fffffffffff11111 <freelist_head+0xffffffffffef8109>
   1351c:	fff0061b          	addiw	a2,zero,-1
   13520:	03f61613          	slli	a2,a2,0x3f
   13524:	f20580d3          	fmv.d.x	ft1,a1
   13528:	f2060153          	fmv.d.x	ft2,a2
   1352c:	22208053          	fsgnj.d	ft0,ft1,ft2
   13530:	a0002553          	feq.s	a0,ft0,ft0
   13534:	fff50513          	addi	a0,a0,-1
   13538:	00051463          	bnez	a0,13540 <test_73+0x34>
   1353c:	e0000553          	fmv.x.w	a0,ft0
   13540:	111113b7          	lui	t2,0x11111
   13544:	1113839b          	addiw	t2,t2,273
   13548:	04900193          	li	gp,73
   1354c:	2e751e63          	bne	a0,t2,13848 <fail>

0000000000013550 <test_173>:
   13550:	fff115b7          	lui	a1,0xfff11
   13554:	1115859b          	addiw	a1,a1,273
   13558:	00c59593          	slli	a1,a1,0xc
   1355c:	11158593          	addi	a1,a1,273 # fffffffffff11111 <freelist_head+0xffffffffffef8109>
   13560:	fff0061b          	addiw	a2,zero,-1
   13564:	03f61613          	slli	a2,a2,0x3f
   13568:	f20580d3          	fmv.d.x	ft1,a1
   1356c:	f2060153          	fmv.d.x	ft2,a2
   13570:	22208053          	fsgnj.d	ft0,ft1,ft2
   13574:	e2000553          	fmv.x.d	a0,ft0
   13578:	fff113b7          	lui	t2,0xfff11
   1357c:	1113839b          	addiw	t2,t2,273
   13580:	00c39393          	slli	t2,t2,0xc
   13584:	11138393          	addi	t2,t2,273 # fffffffffff11111 <freelist_head+0xffffffffffef8109>
   13588:	0ad00193          	li	gp,173
   1358c:	2a751e63          	bne	a0,t2,13848 <fail>

0000000000013590 <test_74>:
   13590:	0010059b          	addiw	a1,zero,1
   13594:	02759593          	slli	a1,a1,0x27
   13598:	f1158593          	addi	a1,a1,-239
   1359c:	00c59593          	slli	a1,a1,0xc
   135a0:	11158593          	addi	a1,a1,273
   135a4:	00c59593          	slli	a1,a1,0xc
   135a8:	11158593          	addi	a1,a1,273
   135ac:	fff11637          	lui	a2,0xfff11
   135b0:	1116061b          	addiw	a2,a2,273
   135b4:	00c61613          	slli	a2,a2,0xc
   135b8:	11160613          	addi	a2,a2,273 # fffffffffff11111 <freelist_head+0xffffffffffef8109>
   135bc:	f20580d3          	fmv.d.x	ft1,a1
   135c0:	f2060153          	fmv.d.x	ft2,a2
   135c4:	22208053          	fsgnj.d	ft0,ft1,ft2
   135c8:	a0002553          	feq.s	a0,ft0,ft0
   135cc:	fff50513          	addi	a0,a0,-1
   135d0:	00051463          	bnez	a0,135d8 <test_74+0x48>
   135d4:	e0000553          	fmv.x.w	a0,ft0
   135d8:	111113b7          	lui	t2,0x11111
   135dc:	1113839b          	addiw	t2,t2,273
   135e0:	04a00193          	li	gp,74
   135e4:	26751263          	bne	a0,t2,13848 <fail>

00000000000135e8 <test_174>:
   135e8:	0010059b          	addiw	a1,zero,1
   135ec:	02759593          	slli	a1,a1,0x27
   135f0:	f1158593          	addi	a1,a1,-239
   135f4:	00c59593          	slli	a1,a1,0xc
   135f8:	11158593          	addi	a1,a1,273
   135fc:	00c59593          	slli	a1,a1,0xc
   13600:	11158593          	addi	a1,a1,273
   13604:	fff11637          	lui	a2,0xfff11
   13608:	1116061b          	addiw	a2,a2,273
   1360c:	00c61613          	slli	a2,a2,0xc
   13610:	11160613          	addi	a2,a2,273 # fffffffffff11111 <freelist_head+0xffffffffffef8109>
   13614:	f20580d3          	fmv.d.x	ft1,a1
   13618:	f2060153          	fmv.d.x	ft2,a2
   1361c:	22208053          	fsgnj.d	ft0,ft1,ft2
   13620:	e2000553          	fmv.x.d	a0,ft0
   13624:	fff113b7          	lui	t2,0xfff11
   13628:	1113839b          	addiw	t2,t2,273
   1362c:	00c39393          	slli	t2,t2,0xc
   13630:	11138393          	addi	t2,t2,273 # fffffffffff11111 <freelist_head+0xffffffffffef8109>
   13634:	0ae00193          	li	gp,174
   13638:	20751863          	bne	a0,t2,13848 <fail>

000000000001363c <test_75>:
   1363c:	0010059b          	addiw	a1,zero,1
   13640:	02759593          	slli	a1,a1,0x27
   13644:	f1158593          	addi	a1,a1,-239
   13648:	00c59593          	slli	a1,a1,0xc
   1364c:	11158593          	addi	a1,a1,273
   13650:	00c59593          	slli	a1,a1,0xc
   13654:	11158593          	addi	a1,a1,273
   13658:	0010061b          	addiw	a2,zero,1
   1365c:	02761613          	slli	a2,a2,0x27
   13660:	f1160613          	addi	a2,a2,-239
   13664:	00c61613          	slli	a2,a2,0xc
   13668:	11160613          	addi	a2,a2,273
   1366c:	00c61613          	slli	a2,a2,0xc
   13670:	11160613          	addi	a2,a2,273
   13674:	f20580d3          	fmv.d.x	ft1,a1
   13678:	f2060153          	fmv.d.x	ft2,a2
   1367c:	22208053          	fsgnj.d	ft0,ft1,ft2
   13680:	a0002553          	feq.s	a0,ft0,ft0
   13684:	00050513          	mv	a0,a0
   13688:	00051463          	bnez	a0,13690 <test_75+0x54>
   1368c:	e0000553          	fmv.x.w	a0,ft0
   13690:	111113b7          	lui	t2,0x11111
   13694:	1113839b          	addiw	t2,t2,273
   13698:	04b00193          	li	gp,75
   1369c:	1a751663          	bne	a0,t2,13848 <fail>

00000000000136a0 <test_175>:
   136a0:	0010059b          	addiw	a1,zero,1
   136a4:	02759593          	slli	a1,a1,0x27
   136a8:	f1158593          	addi	a1,a1,-239
   136ac:	00c59593          	slli	a1,a1,0xc
   136b0:	11158593          	addi	a1,a1,273
   136b4:	00c59593          	slli	a1,a1,0xc
   136b8:	11158593          	addi	a1,a1,273
   136bc:	0010061b          	addiw	a2,zero,1
   136c0:	02761613          	slli	a2,a2,0x27
   136c4:	f1160613          	addi	a2,a2,-239
   136c8:	00c61613          	slli	a2,a2,0xc
   136cc:	11160613          	addi	a2,a2,273
   136d0:	00c61613          	slli	a2,a2,0xc
   136d4:	11160613          	addi	a2,a2,273
   136d8:	f20580d3          	fmv.d.x	ft1,a1
   136dc:	f2060153          	fmv.d.x	ft2,a2
   136e0:	22208053          	fsgnj.d	ft0,ft1,ft2
   136e4:	e2000553          	fmv.x.d	a0,ft0
   136e8:	0010039b          	addiw	t2,zero,1
   136ec:	02739393          	slli	t2,t2,0x27
   136f0:	f1138393          	addi	t2,t2,-239 # 11110f11 <freelist_head+0x110f7f09>
   136f4:	00c39393          	slli	t2,t2,0xc
   136f8:	11138393          	addi	t2,t2,273
   136fc:	00c39393          	slli	t2,t2,0xc
   13700:	11138393          	addi	t2,t2,273
   13704:	0af00193          	li	gp,175
   13708:	14751063          	bne	a0,t2,13848 <fail>

000000000001370c <test_76>:
   1370c:	0010059b          	addiw	a1,zero,1
   13710:	02759593          	slli	a1,a1,0x27
   13714:	f1158593          	addi	a1,a1,-239
   13718:	00c59593          	slli	a1,a1,0xc
   1371c:	11158593          	addi	a1,a1,273
   13720:	00c59593          	slli	a1,a1,0xc
   13724:	11158593          	addi	a1,a1,273
   13728:	91111637          	lui	a2,0x91111
   1372c:	1116061b          	addiw	a2,a2,273
   13730:	f20580d3          	fmv.d.x	ft1,a1
   13734:	f2060153          	fmv.d.x	ft2,a2
   13738:	22208053          	fsgnj.d	ft0,ft1,ft2
   1373c:	a0002553          	feq.s	a0,ft0,ft0
   13740:	fff50513          	addi	a0,a0,-1
   13744:	00051463          	bnez	a0,1374c <test_76+0x40>
   13748:	e0000553          	fmv.x.w	a0,ft0
   1374c:	111113b7          	lui	t2,0x11111
   13750:	1113839b          	addiw	t2,t2,273
   13754:	04c00193          	li	gp,76
   13758:	0e751863          	bne	a0,t2,13848 <fail>

000000000001375c <test_176>:
   1375c:	0010059b          	addiw	a1,zero,1
   13760:	02759593          	slli	a1,a1,0x27
   13764:	f1158593          	addi	a1,a1,-239
   13768:	00c59593          	slli	a1,a1,0xc
   1376c:	11158593          	addi	a1,a1,273
   13770:	00c59593          	slli	a1,a1,0xc
   13774:	11158593          	addi	a1,a1,273
   13778:	91111637          	lui	a2,0x91111
   1377c:	1116061b          	addiw	a2,a2,273
   13780:	f20580d3          	fmv.d.x	ft1,a1
   13784:	f2060153          	fmv.d.x	ft2,a2
   13788:	22208053          	fsgnj.d	ft0,ft1,ft2
   1378c:	e2000553          	fmv.x.d	a0,ft0
   13790:	fff113b7          	lui	t2,0xfff11
   13794:	1113839b          	addiw	t2,t2,273
   13798:	00c39393          	slli	t2,t2,0xc
   1379c:	11138393          	addi	t2,t2,273 # fffffffffff11111 <freelist_head+0xffffffffffef8109>
   137a0:	0b000193          	li	gp,176
   137a4:	0a751263          	bne	a0,t2,13848 <fail>

00000000000137a8 <test_77>:
   137a8:	0010059b          	addiw	a1,zero,1
   137ac:	02759593          	slli	a1,a1,0x27
   137b0:	f1158593          	addi	a1,a1,-239
   137b4:	00c59593          	slli	a1,a1,0xc
   137b8:	11158593          	addi	a1,a1,273
   137bc:	00c59593          	slli	a1,a1,0xc
   137c0:	11158593          	addi	a1,a1,273
   137c4:	fff0061b          	addiw	a2,zero,-1
   137c8:	03f61613          	slli	a2,a2,0x3f
   137cc:	f20580d3          	fmv.d.x	ft1,a1
   137d0:	f2060153          	fmv.d.x	ft2,a2
   137d4:	22208053          	fsgnj.d	ft0,ft1,ft2
   137d8:	a0002553          	feq.s	a0,ft0,ft0
   137dc:	fff50513          	addi	a0,a0,-1
   137e0:	00051463          	bnez	a0,137e8 <test_77+0x40>
   137e4:	e0000553          	fmv.x.w	a0,ft0
   137e8:	111113b7          	lui	t2,0x11111
   137ec:	1113839b          	addiw	t2,t2,273
   137f0:	04d00193          	li	gp,77
   137f4:	04751a63          	bne	a0,t2,13848 <fail>

00000000000137f8 <test_177>:
   137f8:	0010059b          	addiw	a1,zero,1
   137fc:	02759593          	slli	a1,a1,0x27
   13800:	f1158593          	addi	a1,a1,-239
   13804:	00c59593          	slli	a1,a1,0xc
   13808:	11158593          	addi	a1,a1,273
   1380c:	00c59593          	slli	a1,a1,0xc
   13810:	11158593          	addi	a1,a1,273
   13814:	fff0061b          	addiw	a2,zero,-1
   13818:	03f61613          	slli	a2,a2,0x3f
   1381c:	f20580d3          	fmv.d.x	ft1,a1
   13820:	f2060153          	fmv.d.x	ft2,a2
   13824:	22208053          	fsgnj.d	ft0,ft1,ft2
   13828:	e2000553          	fmv.x.d	a0,ft0
   1382c:	fff113b7          	lui	t2,0xfff11
   13830:	1113839b          	addiw	t2,t2,273
   13834:	00c39393          	slli	t2,t2,0xc
   13838:	11138393          	addi	t2,t2,273 # fffffffffff11111 <freelist_head+0xffffffffffef8109>
   1383c:	0b100193          	li	gp,177
   13840:	00751463          	bne	a0,t2,13848 <fail>
   13844:	00301a63          	bne	zero,gp,13858 <pass>

0000000000013848 <fail>:
   13848:	00119513          	slli	a0,gp,0x1
   1384c:	00050063          	beqz	a0,1384c <fail+0x4>
   13850:	00156513          	ori	a0,a0,1
   13854:	00000073          	ecall

0000000000013858 <pass>:
   13858:	00100513          	li	a0,1
   1385c:	00000073          	ecall
   13860:	c0001073          	unimp
