
rv64ui-p-ori:     file format elf64-littleriscv


Disassembly of section .text.init:

0000000000010000 <_start>:
   10000:	0480006f          	j	10048 <reset_vector>

0000000000010004 <trap_vector>:
   10004:	34202f73          	csrr	t5,mcause
   10008:	00800f93          	li	t6,8
   1000c:	03ff0863          	beq	t5,t6,1003c <write_tohost>
   10010:	00900f93          	li	t6,9
   10014:	03ff0463          	beq	t5,t6,1003c <write_tohost>
   10018:	00b00f93          	li	t6,11
   1001c:	03ff0063          	beq	t5,t6,1003c <write_tohost>
   10020:	00000f13          	li	t5,0
   10024:	000f0463          	beqz	t5,1002c <trap_vector+0x28>
   10028:	000f0067          	jr	t5
   1002c:	34202f73          	csrr	t5,mcause
   10030:	000f5463          	bgez	t5,10038 <handle_exception>
   10034:	0040006f          	j	10038 <handle_exception>

0000000000010038 <handle_exception>:
   10038:	5391e193          	ori	gp,gp,1337

000000000001003c <write_tohost>:
   1003c:	00001f17          	auipc	t5,0x1
   10040:	fc3f2223          	sw	gp,-60(t5) # 11000 <tohost>
   10044:	ff9ff06f          	j	1003c <write_tohost>

0000000000010048 <reset_vector>:
   10048:	00000093          	li	ra,0
   1004c:	00000113          	li	sp,0
   10050:	00000193          	li	gp,0
   10054:	00000213          	li	tp,0
   10058:	00000293          	li	t0,0
   1005c:	00000313          	li	t1,0
   10060:	00000393          	li	t2,0
   10064:	00000413          	li	s0,0
   10068:	00000493          	li	s1,0
   1006c:	00000513          	li	a0,0
   10070:	00000593          	li	a1,0
   10074:	00000613          	li	a2,0
   10078:	00000693          	li	a3,0
   1007c:	00000713          	li	a4,0
   10080:	00000793          	li	a5,0
   10084:	00000813          	li	a6,0
   10088:	00000893          	li	a7,0
   1008c:	00000913          	li	s2,0
   10090:	00000993          	li	s3,0
   10094:	00000a13          	li	s4,0
   10098:	00000a93          	li	s5,0
   1009c:	00000b13          	li	s6,0
   100a0:	00000b93          	li	s7,0
   100a4:	00000c13          	li	s8,0
   100a8:	00000c93          	li	s9,0
   100ac:	00000d13          	li	s10,0
   100b0:	00000d93          	li	s11,0
   100b4:	00000e13          	li	t3,0
   100b8:	00000e93          	li	t4,0
   100bc:	00000f13          	li	t5,0
   100c0:	00000f93          	li	t6,0
   100c4:	f1402573          	csrr	a0,mhartid
   100c8:	00051063          	bnez	a0,100c8 <reset_vector+0x80>
   100cc:	00000297          	auipc	t0,0x0
   100d0:	01028293          	addi	t0,t0,16 # 100dc <reset_vector+0x94>
   100d4:	30529073          	csrw	mtvec,t0
   100d8:	18005073          	csrwi	satp,0
   100dc:	00000297          	auipc	t0,0x0
   100e0:	02428293          	addi	t0,t0,36 # 10100 <reset_vector+0xb8>
   100e4:	30529073          	csrw	mtvec,t0
   100e8:	0010029b          	addiw	t0,zero,1
   100ec:	03529293          	slli	t0,t0,0x35
   100f0:	fff28293          	addi	t0,t0,-1
   100f4:	3b029073          	csrw	pmpaddr0,t0
   100f8:	01f00293          	li	t0,31
   100fc:	3a029073          	csrw	pmpcfg0,t0
   10100:	00000297          	auipc	t0,0x0
   10104:	01828293          	addi	t0,t0,24 # 10118 <reset_vector+0xd0>
   10108:	30529073          	csrw	mtvec,t0
   1010c:	30205073          	csrwi	medeleg,0
   10110:	30305073          	csrwi	mideleg,0
   10114:	30405073          	csrwi	mie,0
   10118:	00000193          	li	gp,0
   1011c:	00000297          	auipc	t0,0x0
   10120:	ee828293          	addi	t0,t0,-280 # 10004 <trap_vector>
   10124:	30529073          	csrw	mtvec,t0
   10128:	00100513          	li	a0,1
   1012c:	01f51513          	slli	a0,a0,0x1f
   10130:	00055c63          	bgez	a0,10148 <reset_vector+0x100>
   10134:	0ff0000f          	fence
   10138:	00100193          	li	gp,1
   1013c:	05d00893          	li	a7,93
   10140:	00000513          	li	a0,0
   10144:	00000073          	ecall
   10148:	00000293          	li	t0,0
   1014c:	00028a63          	beqz	t0,10160 <reset_vector+0x118>
   10150:	10529073          	csrw	stvec,t0
   10154:	0000b2b7          	lui	t0,0xb
   10158:	1092829b          	addiw	t0,t0,265
   1015c:	30229073          	csrw	medeleg,t0
   10160:	30005073          	csrwi	mstatus,0
   10164:	00000297          	auipc	t0,0x0
   10168:	01428293          	addi	t0,t0,20 # 10178 <test_2>
   1016c:	34129073          	csrw	mepc,t0
   10170:	f1402573          	csrr	a0,mhartid
   10174:	30200073          	mret

0000000000010178 <test_2>:
   10178:	ff0100b7          	lui	ra,0xff010
   1017c:	f000809b          	addiw	ra,ra,-256
   10180:	f0f0e713          	ori	a4,ra,-241
   10184:	f0f00393          	li	t2,-241
   10188:	00200193          	li	gp,2
   1018c:	1c771c63          	bne	a4,t2,10364 <fail>

0000000000010190 <test_3>:
   10190:	0ff010b7          	lui	ra,0xff01
   10194:	ff00809b          	addiw	ra,ra,-16
   10198:	0f00e713          	ori	a4,ra,240
   1019c:	0ff013b7          	lui	t2,0xff01
   101a0:	ff03839b          	addiw	t2,t2,-16
   101a4:	00300193          	li	gp,3
   101a8:	1a771e63          	bne	a4,t2,10364 <fail>

00000000000101ac <test_4>:
   101ac:	00ff00b7          	lui	ra,0xff0
   101b0:	0ff0809b          	addiw	ra,ra,255
   101b4:	70f0e713          	ori	a4,ra,1807
   101b8:	00ff03b7          	lui	t2,0xff0
   101bc:	7ff3839b          	addiw	t2,t2,2047
   101c0:	00400193          	li	gp,4
   101c4:	1a771063          	bne	a4,t2,10364 <fail>

00000000000101c8 <test_5>:
   101c8:	f00ff0b7          	lui	ra,0xf00ff
   101cc:	00f0809b          	addiw	ra,ra,15
   101d0:	0f00e713          	ori	a4,ra,240
   101d4:	f00ff3b7          	lui	t2,0xf00ff
   101d8:	0ff3839b          	addiw	t2,t2,255
   101dc:	00500193          	li	gp,5
   101e0:	18771263          	bne	a4,t2,10364 <fail>

00000000000101e4 <test_6>:
   101e4:	000100b7          	lui	ra,0x10
   101e8:	f010809b          	addiw	ra,ra,-255
   101ec:	01009093          	slli	ra,ra,0x10
   101f0:	f0008093          	addi	ra,ra,-256 # ff00 <_start-0x100>
   101f4:	0f00e093          	ori	ra,ra,240
   101f8:	000103b7          	lui	t2,0x10
   101fc:	f013839b          	addiw	t2,t2,-255
   10200:	01039393          	slli	t2,t2,0x10
   10204:	ff038393          	addi	t2,t2,-16 # fff0 <_start-0x10>
   10208:	00600193          	li	gp,6
   1020c:	14709c63          	bne	ra,t2,10364 <fail>

0000000000010210 <test_7>:
   10210:	00000213          	li	tp,0
   10214:	0ff010b7          	lui	ra,0xff01
   10218:	ff00809b          	addiw	ra,ra,-16
   1021c:	0f00e713          	ori	a4,ra,240
   10220:	00070313          	mv	t1,a4
   10224:	00120213          	addi	tp,tp,1 # 1 <_start-0xffff>
   10228:	00200293          	li	t0,2
   1022c:	fe5214e3          	bne	tp,t0,10214 <test_7+0x4>
   10230:	0ff013b7          	lui	t2,0xff01
   10234:	ff03839b          	addiw	t2,t2,-16
   10238:	00700193          	li	gp,7
   1023c:	12731463          	bne	t1,t2,10364 <fail>

0000000000010240 <test_8>:
   10240:	00000213          	li	tp,0
   10244:	00ff00b7          	lui	ra,0xff0
   10248:	0ff0809b          	addiw	ra,ra,255
   1024c:	70f0e713          	ori	a4,ra,1807
   10250:	00000013          	nop
   10254:	00070313          	mv	t1,a4
   10258:	00120213          	addi	tp,tp,1 # 1 <_start-0xffff>
   1025c:	00200293          	li	t0,2
   10260:	fe5212e3          	bne	tp,t0,10244 <test_8+0x4>
   10264:	00ff03b7          	lui	t2,0xff0
   10268:	7ff3839b          	addiw	t2,t2,2047
   1026c:	00800193          	li	gp,8
   10270:	0e731a63          	bne	t1,t2,10364 <fail>

0000000000010274 <test_9>:
   10274:	00000213          	li	tp,0
   10278:	f00ff0b7          	lui	ra,0xf00ff
   1027c:	00f0809b          	addiw	ra,ra,15
   10280:	0f00e713          	ori	a4,ra,240
   10284:	00000013          	nop
   10288:	00000013          	nop
   1028c:	00070313          	mv	t1,a4
   10290:	00120213          	addi	tp,tp,1 # 1 <_start-0xffff>
   10294:	00200293          	li	t0,2
   10298:	fe5210e3          	bne	tp,t0,10278 <test_9+0x4>
   1029c:	f00ff3b7          	lui	t2,0xf00ff
   102a0:	0ff3839b          	addiw	t2,t2,255
   102a4:	00900193          	li	gp,9
   102a8:	0a731e63          	bne	t1,t2,10364 <fail>

00000000000102ac <test_10>:
   102ac:	00000213          	li	tp,0
   102b0:	0ff010b7          	lui	ra,0xff01
   102b4:	ff00809b          	addiw	ra,ra,-16
   102b8:	0f00e713          	ori	a4,ra,240
   102bc:	00120213          	addi	tp,tp,1 # 1 <_start-0xffff>
   102c0:	00200293          	li	t0,2
   102c4:	fe5216e3          	bne	tp,t0,102b0 <test_10+0x4>
   102c8:	0ff013b7          	lui	t2,0xff01
   102cc:	ff03839b          	addiw	t2,t2,-16
   102d0:	00a00193          	li	gp,10
   102d4:	08771863          	bne	a4,t2,10364 <fail>

00000000000102d8 <test_11>:
   102d8:	00000213          	li	tp,0
   102dc:	00ff00b7          	lui	ra,0xff0
   102e0:	0ff0809b          	addiw	ra,ra,255
   102e4:	00000013          	nop
   102e8:	f0f0e713          	ori	a4,ra,-241
   102ec:	00120213          	addi	tp,tp,1 # 1 <_start-0xffff>
   102f0:	00200293          	li	t0,2
   102f4:	fe5214e3          	bne	tp,t0,102dc <test_11+0x4>
   102f8:	fff00393          	li	t2,-1
   102fc:	00b00193          	li	gp,11
   10300:	06771263          	bne	a4,t2,10364 <fail>

0000000000010304 <test_12>:
   10304:	00000213          	li	tp,0
   10308:	f00ff0b7          	lui	ra,0xf00ff
   1030c:	00f0809b          	addiw	ra,ra,15
   10310:	00000013          	nop
   10314:	00000013          	nop
   10318:	0f00e713          	ori	a4,ra,240
   1031c:	00120213          	addi	tp,tp,1 # 1 <_start-0xffff>
   10320:	00200293          	li	t0,2
   10324:	fe5212e3          	bne	tp,t0,10308 <test_12+0x4>
   10328:	f00ff3b7          	lui	t2,0xf00ff
   1032c:	0ff3839b          	addiw	t2,t2,255
   10330:	00c00193          	li	gp,12
   10334:	02771863          	bne	a4,t2,10364 <fail>

0000000000010338 <test_13>:
   10338:	0f006093          	ori	ra,zero,240
   1033c:	0f000393          	li	t2,240
   10340:	00d00193          	li	gp,13
   10344:	02709063          	bne	ra,t2,10364 <fail>

0000000000010348 <test_14>:
   10348:	00ff00b7          	lui	ra,0xff0
   1034c:	0ff0809b          	addiw	ra,ra,255
   10350:	70f0e013          	ori	zero,ra,1807
   10354:	00000393          	li	t2,0
   10358:	00e00193          	li	gp,14
   1035c:	00701463          	bne	zero,t2,10364 <fail>
   10360:	02301063          	bne	zero,gp,10380 <pass>

0000000000010364 <fail>:
   10364:	0ff0000f          	fence
   10368:	00018063          	beqz	gp,10368 <fail+0x4>
   1036c:	00119193          	slli	gp,gp,0x1
   10370:	0011e193          	ori	gp,gp,1
   10374:	05d00893          	li	a7,93
   10378:	00018513          	mv	a0,gp
   1037c:	00000073          	ecall

0000000000010380 <pass>:
   10380:	0ff0000f          	fence
   10384:	00100193          	li	gp,1
   10388:	05d00893          	li	a7,93
   1038c:	00000513          	li	a0,0
   10390:	00000073          	ecall
   10394:	c0001073          	unimp
   10398:	0000                	unimp
   1039a:	0000                	unimp
   1039c:	0000                	unimp
   1039e:	0000                	unimp
   103a0:	0000                	unimp
   103a2:	0000                	unimp
   103a4:	0000                	unimp
   103a6:	0000                	unimp
   103a8:	0000                	unimp
   103aa:	0000                	unimp
   103ac:	0000                	unimp
   103ae:	0000                	unimp
   103b0:	0000                	unimp
   103b2:	0000                	unimp
   103b4:	0000                	unimp
   103b6:	0000                	unimp
   103b8:	0000                	unimp
   103ba:	0000                	unimp
