
rv64ui-p-slli:     file format elf64-littleriscv


Disassembly of section .text.init:

0000000000010000 <_start>:
   10000:	0480006f          	j	10048 <reset_vector>

0000000000010004 <trap_vector>:
   10004:	34202f73          	csrr	t5,mcause
   10008:	00800f93          	li	t6,8
   1000c:	03ff0863          	beq	t5,t6,1003c <write_tohost>
   10010:	00900f93          	li	t6,9
   10014:	03ff0463          	beq	t5,t6,1003c <write_tohost>
   10018:	00b00f93          	li	t6,11
   1001c:	03ff0063          	beq	t5,t6,1003c <write_tohost>
   10020:	00000f13          	li	t5,0
   10024:	000f0463          	beqz	t5,1002c <trap_vector+0x28>
   10028:	000f0067          	jr	t5
   1002c:	34202f73          	csrr	t5,mcause
   10030:	000f5463          	bgez	t5,10038 <handle_exception>
   10034:	0040006f          	j	10038 <handle_exception>

0000000000010038 <handle_exception>:
   10038:	5391e193          	ori	gp,gp,1337

000000000001003c <write_tohost>:
   1003c:	00001f17          	auipc	t5,0x1
   10040:	fc3f2223          	sw	gp,-60(t5) # 11000 <tohost>
   10044:	ff9ff06f          	j	1003c <write_tohost>

0000000000010048 <reset_vector>:
   10048:	00000093          	li	ra,0
   1004c:	00000113          	li	sp,0
   10050:	00000193          	li	gp,0
   10054:	00000213          	li	tp,0
   10058:	00000293          	li	t0,0
   1005c:	00000313          	li	t1,0
   10060:	00000393          	li	t2,0
   10064:	00000413          	li	s0,0
   10068:	00000493          	li	s1,0
   1006c:	00000513          	li	a0,0
   10070:	00000593          	li	a1,0
   10074:	00000613          	li	a2,0
   10078:	00000693          	li	a3,0
   1007c:	00000713          	li	a4,0
   10080:	00000793          	li	a5,0
   10084:	00000813          	li	a6,0
   10088:	00000893          	li	a7,0
   1008c:	00000913          	li	s2,0
   10090:	00000993          	li	s3,0
   10094:	00000a13          	li	s4,0
   10098:	00000a93          	li	s5,0
   1009c:	00000b13          	li	s6,0
   100a0:	00000b93          	li	s7,0
   100a4:	00000c13          	li	s8,0
   100a8:	00000c93          	li	s9,0
   100ac:	00000d13          	li	s10,0
   100b0:	00000d93          	li	s11,0
   100b4:	00000e13          	li	t3,0
   100b8:	00000e93          	li	t4,0
   100bc:	00000f13          	li	t5,0
   100c0:	00000f93          	li	t6,0
   100c4:	f1402573          	csrr	a0,mhartid
   100c8:	00051063          	bnez	a0,100c8 <reset_vector+0x80>
   100cc:	00000297          	auipc	t0,0x0
   100d0:	01028293          	addi	t0,t0,16 # 100dc <reset_vector+0x94>
   100d4:	30529073          	csrw	mtvec,t0
   100d8:	18005073          	csrwi	satp,0
   100dc:	00000297          	auipc	t0,0x0
   100e0:	02428293          	addi	t0,t0,36 # 10100 <reset_vector+0xb8>
   100e4:	30529073          	csrw	mtvec,t0
   100e8:	0010029b          	addiw	t0,zero,1
   100ec:	03529293          	slli	t0,t0,0x35
   100f0:	fff28293          	addi	t0,t0,-1
   100f4:	3b029073          	csrw	pmpaddr0,t0
   100f8:	01f00293          	li	t0,31
   100fc:	3a029073          	csrw	pmpcfg0,t0
   10100:	00000297          	auipc	t0,0x0
   10104:	01828293          	addi	t0,t0,24 # 10118 <reset_vector+0xd0>
   10108:	30529073          	csrw	mtvec,t0
   1010c:	30205073          	csrwi	medeleg,0
   10110:	30305073          	csrwi	mideleg,0
   10114:	30405073          	csrwi	mie,0
   10118:	00000193          	li	gp,0
   1011c:	00000297          	auipc	t0,0x0
   10120:	ee828293          	addi	t0,t0,-280 # 10004 <trap_vector>
   10124:	30529073          	csrw	mtvec,t0
   10128:	00100513          	li	a0,1
   1012c:	01f51513          	slli	a0,a0,0x1f
   10130:	00055c63          	bgez	a0,10148 <reset_vector+0x100>
   10134:	0ff0000f          	fence
   10138:	00100193          	li	gp,1
   1013c:	05d00893          	li	a7,93
   10140:	00000513          	li	a0,0
   10144:	00000073          	ecall
   10148:	00000293          	li	t0,0
   1014c:	00028a63          	beqz	t0,10160 <reset_vector+0x118>
   10150:	10529073          	csrw	stvec,t0
   10154:	0000b2b7          	lui	t0,0xb
   10158:	1092829b          	addiw	t0,t0,265
   1015c:	30229073          	csrw	medeleg,t0
   10160:	30005073          	csrwi	mstatus,0
   10164:	00000297          	auipc	t0,0x0
   10168:	01428293          	addi	t0,t0,20 # 10178 <test_2>
   1016c:	34129073          	csrw	mepc,t0
   10170:	f1402573          	csrr	a0,mhartid
   10174:	30200073          	mret

0000000000010178 <test_2>:
   10178:	00100093          	li	ra,1
   1017c:	00009713          	slli	a4,ra,0x0
   10180:	00100393          	li	t2,1
   10184:	00200193          	li	gp,2
   10188:	2e771463          	bne	a4,t2,10470 <fail>

000000000001018c <test_3>:
   1018c:	00100093          	li	ra,1
   10190:	00109713          	slli	a4,ra,0x1
   10194:	00200393          	li	t2,2
   10198:	00300193          	li	gp,3
   1019c:	2c771a63          	bne	a4,t2,10470 <fail>

00000000000101a0 <test_4>:
   101a0:	00100093          	li	ra,1
   101a4:	00709713          	slli	a4,ra,0x7
   101a8:	08000393          	li	t2,128
   101ac:	00400193          	li	gp,4
   101b0:	2c771063          	bne	a4,t2,10470 <fail>

00000000000101b4 <test_5>:
   101b4:	00100093          	li	ra,1
   101b8:	00e09713          	slli	a4,ra,0xe
   101bc:	000043b7          	lui	t2,0x4
   101c0:	00500193          	li	gp,5
   101c4:	2a771663          	bne	a4,t2,10470 <fail>

00000000000101c8 <test_6>:
   101c8:	00100093          	li	ra,1
   101cc:	01f09713          	slli	a4,ra,0x1f
   101d0:	0010039b          	addiw	t2,zero,1
   101d4:	01f39393          	slli	t2,t2,0x1f
   101d8:	00600193          	li	gp,6
   101dc:	28771a63          	bne	a4,t2,10470 <fail>

00000000000101e0 <test_7>:
   101e0:	fff00093          	li	ra,-1
   101e4:	00009713          	slli	a4,ra,0x0
   101e8:	fff00393          	li	t2,-1
   101ec:	00700193          	li	gp,7
   101f0:	28771063          	bne	a4,t2,10470 <fail>

00000000000101f4 <test_8>:
   101f4:	fff00093          	li	ra,-1
   101f8:	00109713          	slli	a4,ra,0x1
   101fc:	ffe00393          	li	t2,-2
   10200:	00800193          	li	gp,8
   10204:	26771663          	bne	a4,t2,10470 <fail>

0000000000010208 <test_9>:
   10208:	fff00093          	li	ra,-1
   1020c:	00709713          	slli	a4,ra,0x7
   10210:	f8000393          	li	t2,-128
   10214:	00900193          	li	gp,9
   10218:	24771c63          	bne	a4,t2,10470 <fail>

000000000001021c <test_10>:
   1021c:	fff00093          	li	ra,-1
   10220:	00e09713          	slli	a4,ra,0xe
   10224:	ffffc3b7          	lui	t2,0xffffc
   10228:	00a00193          	li	gp,10
   1022c:	24771263          	bne	a4,t2,10470 <fail>

0000000000010230 <test_11>:
   10230:	fff00093          	li	ra,-1
   10234:	01f09713          	slli	a4,ra,0x1f
   10238:	800003b7          	lui	t2,0x80000
   1023c:	00b00193          	li	gp,11
   10240:	22771863          	bne	a4,t2,10470 <fail>

0000000000010244 <test_12>:
   10244:	212120b7          	lui	ra,0x21212
   10248:	1210809b          	addiw	ra,ra,289
   1024c:	00009713          	slli	a4,ra,0x0
   10250:	212123b7          	lui	t2,0x21212
   10254:	1213839b          	addiw	t2,t2,289
   10258:	00c00193          	li	gp,12
   1025c:	20771a63          	bne	a4,t2,10470 <fail>

0000000000010260 <test_13>:
   10260:	212120b7          	lui	ra,0x21212
   10264:	1210809b          	addiw	ra,ra,289
   10268:	00109713          	slli	a4,ra,0x1
   1026c:	424243b7          	lui	t2,0x42424
   10270:	2423839b          	addiw	t2,t2,578
   10274:	00d00193          	li	gp,13
   10278:	1e771c63          	bne	a4,t2,10470 <fail>

000000000001027c <test_14>:
   1027c:	212120b7          	lui	ra,0x21212
   10280:	1210809b          	addiw	ra,ra,289
   10284:	00709713          	slli	a4,ra,0x7
   10288:	010913b7          	lui	t2,0x1091
   1028c:	9093839b          	addiw	t2,t2,-1783
   10290:	00c39393          	slli	t2,t2,0xc
   10294:	08038393          	addi	t2,t2,128 # 1091080 <_end+0x107f080>
   10298:	00e00193          	li	gp,14
   1029c:	1c771a63          	bne	a4,t2,10470 <fail>

00000000000102a0 <test_15>:
   102a0:	212120b7          	lui	ra,0x21212
   102a4:	1210809b          	addiw	ra,ra,289
   102a8:	00e09713          	slli	a4,ra,0xe
   102ac:	212123b7          	lui	t2,0x21212
   102b0:	1213839b          	addiw	t2,t2,289
   102b4:	00e39393          	slli	t2,t2,0xe
   102b8:	00f00193          	li	gp,15
   102bc:	1a771a63          	bne	a4,t2,10470 <fail>

00000000000102c0 <test_16>:
   102c0:	212120b7          	lui	ra,0x21212
   102c4:	1210809b          	addiw	ra,ra,289
   102c8:	01f09713          	slli	a4,ra,0x1f
   102cc:	212123b7          	lui	t2,0x21212
   102d0:	1213839b          	addiw	t2,t2,289
   102d4:	01f39393          	slli	t2,t2,0x1f
   102d8:	01000193          	li	gp,16
   102dc:	18771a63          	bne	a4,t2,10470 <fail>

00000000000102e0 <test_50>:
   102e0:	00100093          	li	ra,1
   102e4:	03f09713          	slli	a4,ra,0x3f
   102e8:	fff0039b          	addiw	t2,zero,-1
   102ec:	03f39393          	slli	t2,t2,0x3f
   102f0:	03200193          	li	gp,50
   102f4:	16771e63          	bne	a4,t2,10470 <fail>

00000000000102f8 <test_51>:
   102f8:	fff00093          	li	ra,-1
   102fc:	02709713          	slli	a4,ra,0x27
   10300:	fff0039b          	addiw	t2,zero,-1
   10304:	02739393          	slli	t2,t2,0x27
   10308:	03300193          	li	gp,51
   1030c:	16771263          	bne	a4,t2,10470 <fail>

0000000000010310 <test_52>:
   10310:	212120b7          	lui	ra,0x21212
   10314:	1210809b          	addiw	ra,ra,289
   10318:	02b09713          	slli	a4,ra,0x2b
   1031c:	000123b7          	lui	t2,0x12
   10320:	1213839b          	addiw	t2,t2,289
   10324:	02b39393          	slli	t2,t2,0x2b
   10328:	03400193          	li	gp,52
   1032c:	14771263          	bne	a4,t2,10470 <fail>

0000000000010330 <test_17>:
   10330:	00100093          	li	ra,1
   10334:	00709093          	slli	ra,ra,0x7
   10338:	08000393          	li	t2,128
   1033c:	01100193          	li	gp,17
   10340:	12709863          	bne	ra,t2,10470 <fail>

0000000000010344 <test_18>:
   10344:	00000213          	li	tp,0
   10348:	00100093          	li	ra,1
   1034c:	00709713          	slli	a4,ra,0x7
   10350:	00070313          	mv	t1,a4
   10354:	00120213          	addi	tp,tp,1 # 1 <_start-0xffff>
   10358:	00200293          	li	t0,2
   1035c:	fe5216e3          	bne	tp,t0,10348 <test_18+0x4>
   10360:	08000393          	li	t2,128
   10364:	01200193          	li	gp,18
   10368:	10731463          	bne	t1,t2,10470 <fail>

000000000001036c <test_19>:
   1036c:	00000213          	li	tp,0
   10370:	00100093          	li	ra,1
   10374:	00e09713          	slli	a4,ra,0xe
   10378:	00000013          	nop
   1037c:	00070313          	mv	t1,a4
   10380:	00120213          	addi	tp,tp,1 # 1 <_start-0xffff>
   10384:	00200293          	li	t0,2
   10388:	fe5214e3          	bne	tp,t0,10370 <test_19+0x4>
   1038c:	000043b7          	lui	t2,0x4
   10390:	01300193          	li	gp,19
   10394:	0c731e63          	bne	t1,t2,10470 <fail>

0000000000010398 <test_20>:
   10398:	00000213          	li	tp,0
   1039c:	00100093          	li	ra,1
   103a0:	01f09713          	slli	a4,ra,0x1f
   103a4:	00000013          	nop
   103a8:	00000013          	nop
   103ac:	00070313          	mv	t1,a4
   103b0:	00120213          	addi	tp,tp,1 # 1 <_start-0xffff>
   103b4:	00200293          	li	t0,2
   103b8:	fe5212e3          	bne	tp,t0,1039c <test_20+0x4>
   103bc:	0010039b          	addiw	t2,zero,1
   103c0:	01f39393          	slli	t2,t2,0x1f
   103c4:	01400193          	li	gp,20
   103c8:	0a731463          	bne	t1,t2,10470 <fail>

00000000000103cc <test_21>:
   103cc:	00000213          	li	tp,0
   103d0:	00100093          	li	ra,1
   103d4:	00709713          	slli	a4,ra,0x7
   103d8:	00120213          	addi	tp,tp,1 # 1 <_start-0xffff>
   103dc:	00200293          	li	t0,2
   103e0:	fe5218e3          	bne	tp,t0,103d0 <test_21+0x4>
   103e4:	08000393          	li	t2,128
   103e8:	01500193          	li	gp,21
   103ec:	08771263          	bne	a4,t2,10470 <fail>

00000000000103f0 <test_22>:
   103f0:	00000213          	li	tp,0
   103f4:	00100093          	li	ra,1
   103f8:	00000013          	nop
   103fc:	00e09713          	slli	a4,ra,0xe
   10400:	00120213          	addi	tp,tp,1 # 1 <_start-0xffff>
   10404:	00200293          	li	t0,2
   10408:	fe5216e3          	bne	tp,t0,103f4 <test_22+0x4>
   1040c:	000043b7          	lui	t2,0x4
   10410:	01600193          	li	gp,22
   10414:	04771e63          	bne	a4,t2,10470 <fail>

0000000000010418 <test_23>:
   10418:	00000213          	li	tp,0
   1041c:	00100093          	li	ra,1
   10420:	00000013          	nop
   10424:	00000013          	nop
   10428:	01f09713          	slli	a4,ra,0x1f
   1042c:	00120213          	addi	tp,tp,1 # 1 <_start-0xffff>
   10430:	00200293          	li	t0,2
   10434:	fe5214e3          	bne	tp,t0,1041c <test_23+0x4>
   10438:	0010039b          	addiw	t2,zero,1
   1043c:	01f39393          	slli	t2,t2,0x1f
   10440:	01700193          	li	gp,23
   10444:	02771663          	bne	a4,t2,10470 <fail>

0000000000010448 <test_24>:
   10448:	01f01093          	slli	ra,zero,0x1f
   1044c:	00000393          	li	t2,0
   10450:	01800193          	li	gp,24
   10454:	00709e63          	bne	ra,t2,10470 <fail>

0000000000010458 <test_25>:
   10458:	02100093          	li	ra,33
   1045c:	01409013          	slli	zero,ra,0x14
   10460:	00000393          	li	t2,0
   10464:	01900193          	li	gp,25
   10468:	00701463          	bne	zero,t2,10470 <fail>
   1046c:	02301063          	bne	zero,gp,1048c <pass>

0000000000010470 <fail>:
   10470:	0ff0000f          	fence
   10474:	00018063          	beqz	gp,10474 <fail+0x4>
   10478:	00119193          	slli	gp,gp,0x1
   1047c:	0011e193          	ori	gp,gp,1
   10480:	05d00893          	li	a7,93
   10484:	00018513          	mv	a0,gp
   10488:	00000073          	ecall

000000000001048c <pass>:
   1048c:	0ff0000f          	fence
   10490:	00100193          	li	gp,1
   10494:	05d00893          	li	a7,93
   10498:	00000513          	li	a0,0
   1049c:	00000073          	ecall
   104a0:	c0001073          	unimp
   104a4:	0000                	unimp
   104a6:	0000                	unimp
   104a8:	0000                	unimp
   104aa:	0000                	unimp
   104ac:	0000                	unimp
   104ae:	0000                	unimp
   104b0:	0000                	unimp
   104b2:	0000                	unimp
   104b4:	0000                	unimp
   104b6:	0000                	unimp
   104b8:	0000                	unimp
   104ba:	0000                	unimp
