
rv64ud-p-fcvt:     file format elf64-littleriscv


Disassembly of section .text.init:

0000000000010000 <_start>:
   10000:	0480006f          	j	10048 <reset_vector>

0000000000010004 <trap_vector>:
   10004:	34202f73          	csrr	t5,mcause
   10008:	00800f93          	li	t6,8
   1000c:	03ff0863          	beq	t5,t6,1003c <write_tohost>
   10010:	00900f93          	li	t6,9
   10014:	03ff0463          	beq	t5,t6,1003c <write_tohost>
   10018:	00b00f93          	li	t6,11
   1001c:	03ff0063          	beq	t5,t6,1003c <write_tohost>
   10020:	00000f13          	li	t5,0
   10024:	000f0463          	beqz	t5,1002c <trap_vector+0x28>
   10028:	000f0067          	jr	t5
   1002c:	34202f73          	csrr	t5,mcause
   10030:	000f5463          	bgez	t5,10038 <handle_exception>
   10034:	0040006f          	j	10038 <handle_exception>

0000000000010038 <handle_exception>:
   10038:	5391e193          	ori	gp,gp,1337

000000000001003c <write_tohost>:
   1003c:	00001f17          	auipc	t5,0x1
   10040:	fc3f2223          	sw	gp,-60(t5) # 11000 <tohost>
   10044:	ff9ff06f          	j	1003c <write_tohost>

0000000000010048 <reset_vector>:
   10048:	00000093          	li	ra,0
   1004c:	00000113          	li	sp,0
   10050:	00000193          	li	gp,0
   10054:	00000213          	li	tp,0
   10058:	00000293          	li	t0,0
   1005c:	00000313          	li	t1,0
   10060:	00000393          	li	t2,0
   10064:	00000413          	li	s0,0
   10068:	00000493          	li	s1,0
   1006c:	00000513          	li	a0,0
   10070:	00000593          	li	a1,0
   10074:	00000613          	li	a2,0
   10078:	00000693          	li	a3,0
   1007c:	00000713          	li	a4,0
   10080:	00000793          	li	a5,0
   10084:	00000813          	li	a6,0
   10088:	00000893          	li	a7,0
   1008c:	00000913          	li	s2,0
   10090:	00000993          	li	s3,0
   10094:	00000a13          	li	s4,0
   10098:	00000a93          	li	s5,0
   1009c:	00000b13          	li	s6,0
   100a0:	00000b93          	li	s7,0
   100a4:	00000c13          	li	s8,0
   100a8:	00000c93          	li	s9,0
   100ac:	00000d13          	li	s10,0
   100b0:	00000d93          	li	s11,0
   100b4:	00000e13          	li	t3,0
   100b8:	00000e93          	li	t4,0
   100bc:	00000f13          	li	t5,0
   100c0:	00000f93          	li	t6,0
   100c4:	f1402573          	csrr	a0,mhartid
   100c8:	00051063          	bnez	a0,100c8 <reset_vector+0x80>
   100cc:	00000297          	auipc	t0,0x0
   100d0:	01028293          	addi	t0,t0,16 # 100dc <reset_vector+0x94>
   100d4:	30529073          	csrw	mtvec,t0
   100d8:	18005073          	csrwi	satp,0
   100dc:	00000297          	auipc	t0,0x0
   100e0:	02428293          	addi	t0,t0,36 # 10100 <reset_vector+0xb8>
   100e4:	30529073          	csrw	mtvec,t0
   100e8:	0010029b          	addiw	t0,zero,1
   100ec:	03529293          	slli	t0,t0,0x35
   100f0:	fff28293          	addi	t0,t0,-1
   100f4:	3b029073          	csrw	pmpaddr0,t0
   100f8:	01f00293          	li	t0,31
   100fc:	3a029073          	csrw	pmpcfg0,t0
   10100:	00000297          	auipc	t0,0x0
   10104:	01828293          	addi	t0,t0,24 # 10118 <reset_vector+0xd0>
   10108:	30529073          	csrw	mtvec,t0
   1010c:	30205073          	csrwi	medeleg,0
   10110:	30305073          	csrwi	mideleg,0
   10114:	30405073          	csrwi	mie,0
   10118:	00000193          	li	gp,0
   1011c:	00000297          	auipc	t0,0x0
   10120:	ee828293          	addi	t0,t0,-280 # 10004 <trap_vector>
   10124:	30529073          	csrw	mtvec,t0
   10128:	00100513          	li	a0,1
   1012c:	01f51513          	slli	a0,a0,0x1f
   10130:	00055c63          	bgez	a0,10148 <reset_vector+0x100>
   10134:	0ff0000f          	fence
   10138:	00100193          	li	gp,1
   1013c:	05d00893          	li	a7,93
   10140:	00000513          	li	a0,0
   10144:	00000073          	ecall
   10148:	00000293          	li	t0,0
   1014c:	00028a63          	beqz	t0,10160 <reset_vector+0x118>
   10150:	10529073          	csrw	stvec,t0
   10154:	0000b2b7          	lui	t0,0xb
   10158:	1092829b          	addiw	t0,t0,265
   1015c:	30229073          	csrw	medeleg,t0
   10160:	30005073          	csrwi	mstatus,0
   10164:	00002537          	lui	a0,0x2
   10168:	30052073          	csrs	mstatus,a0
   1016c:	00305073          	csrwi	fcsr,0
   10170:	00000297          	auipc	t0,0x0
   10174:	01428293          	addi	t0,t0,20 # 10184 <test_2>
   10178:	34129073          	csrw	mepc,t0
   1017c:	f1402573          	csrr	a0,mhartid
   10180:	30200073          	mret

0000000000010184 <test_2>:
   10184:	00200193          	li	gp,2
   10188:	00002517          	auipc	a0,0x2
   1018c:	e7850513          	addi	a0,a0,-392 # 12000 <test_2_data>
   10190:	00053683          	ld	a3,0(a0)
   10194:	00200513          	li	a0,2
   10198:	d2050053          	fcvt.d.w	ft0,a0
   1019c:	00101073          	fsflags	zero
   101a0:	e2000553          	fmv.x.d	a0,ft0
   101a4:	1ad51263          	bne	a0,a3,10348 <fail>

00000000000101a8 <test_3>:
   101a8:	00300193          	li	gp,3
   101ac:	00002517          	auipc	a0,0x2
   101b0:	e5c50513          	addi	a0,a0,-420 # 12008 <test_3_data>
   101b4:	00053683          	ld	a3,0(a0)
   101b8:	ffe00513          	li	a0,-2
   101bc:	d2050053          	fcvt.d.w	ft0,a0
   101c0:	00101073          	fsflags	zero
   101c4:	e2000553          	fmv.x.d	a0,ft0
   101c8:	18d51063          	bne	a0,a3,10348 <fail>

00000000000101cc <test_4>:
   101cc:	00400193          	li	gp,4
   101d0:	00002517          	auipc	a0,0x2
   101d4:	e4050513          	addi	a0,a0,-448 # 12010 <test_4_data>
   101d8:	00053683          	ld	a3,0(a0)
   101dc:	00200513          	li	a0,2
   101e0:	d2150053          	fcvt.d.wu	ft0,a0
   101e4:	00101073          	fsflags	zero
   101e8:	e2000553          	fmv.x.d	a0,ft0
   101ec:	14d51e63          	bne	a0,a3,10348 <fail>

00000000000101f0 <test_5>:
   101f0:	00500193          	li	gp,5
   101f4:	00002517          	auipc	a0,0x2
   101f8:	e2450513          	addi	a0,a0,-476 # 12018 <test_5_data>
   101fc:	00053683          	ld	a3,0(a0)
   10200:	ffe00513          	li	a0,-2
   10204:	d2150053          	fcvt.d.wu	ft0,a0
   10208:	00101073          	fsflags	zero
   1020c:	e2000553          	fmv.x.d	a0,ft0
   10210:	12d51c63          	bne	a0,a3,10348 <fail>

0000000000010214 <test_6>:
   10214:	00600193          	li	gp,6
   10218:	00002517          	auipc	a0,0x2
   1021c:	e0850513          	addi	a0,a0,-504 # 12020 <test_6_data>
   10220:	00053683          	ld	a3,0(a0)
   10224:	00200513          	li	a0,2
   10228:	d2257053          	fcvt.d.l	ft0,a0
   1022c:	00101073          	fsflags	zero
   10230:	e2000553          	fmv.x.d	a0,ft0
   10234:	10d51a63          	bne	a0,a3,10348 <fail>

0000000000010238 <test_7>:
   10238:	00700193          	li	gp,7
   1023c:	00002517          	auipc	a0,0x2
   10240:	dec50513          	addi	a0,a0,-532 # 12028 <test_7_data>
   10244:	00053683          	ld	a3,0(a0)
   10248:	ffe00513          	li	a0,-2
   1024c:	d2257053          	fcvt.d.l	ft0,a0
   10250:	00101073          	fsflags	zero
   10254:	e2000553          	fmv.x.d	a0,ft0
   10258:	0ed51863          	bne	a0,a3,10348 <fail>

000000000001025c <test_8>:
   1025c:	00800193          	li	gp,8
   10260:	00002517          	auipc	a0,0x2
   10264:	dd050513          	addi	a0,a0,-560 # 12030 <test_8_data>
   10268:	00053683          	ld	a3,0(a0)
   1026c:	00200513          	li	a0,2
   10270:	d2357053          	fcvt.d.lu	ft0,a0
   10274:	00101073          	fsflags	zero
   10278:	e2000553          	fmv.x.d	a0,ft0
   1027c:	0cd51663          	bne	a0,a3,10348 <fail>

0000000000010280 <test_9>:
   10280:	00900193          	li	gp,9
   10284:	00002517          	auipc	a0,0x2
   10288:	db450513          	addi	a0,a0,-588 # 12038 <test_9_data>
   1028c:	00053683          	ld	a3,0(a0)
   10290:	ffe00513          	li	a0,-2
   10294:	d2357053          	fcvt.d.lu	ft0,a0
   10298:	00101073          	fsflags	zero
   1029c:	e2000553          	fmv.x.d	a0,ft0
   102a0:	0ad51463          	bne	a0,a3,10348 <fail>

00000000000102a4 <test_10>:
   102a4:	00a00193          	li	gp,10
   102a8:	00002517          	auipc	a0,0x2
   102ac:	d9850513          	addi	a0,a0,-616 # 12040 <test_10_data>
   102b0:	00053007          	fld	ft0,0(a0)
   102b4:	00853087          	fld	ft1,8(a0)
   102b8:	01053107          	fld	ft2,16(a0)
   102bc:	01853683          	ld	a3,24(a0)
   102c0:	401071d3          	fcvt.s.d	ft3,ft0
   102c4:	420181d3          	fcvt.d.s	ft3,ft3
   102c8:	e2018553          	fmv.x.d	a0,ft3
   102cc:	001015f3          	fsflags	a1,zero
   102d0:	00000613          	li	a2,0
   102d4:	06d51a63          	bne	a0,a3,10348 <fail>
   102d8:	06c59863          	bne	a1,a2,10348 <fail>

00000000000102dc <test_11>:
   102dc:	00b00193          	li	gp,11
   102e0:	00002517          	auipc	a0,0x2
   102e4:	d8050513          	addi	a0,a0,-640 # 12060 <test_11_data>
   102e8:	00052007          	flw	ft0,0(a0)
   102ec:	00452087          	flw	ft1,4(a0)
   102f0:	00852107          	flw	ft2,8(a0)
   102f4:	00c52683          	lw	a3,12(a0)
   102f8:	420001d3          	fcvt.d.s	ft3,ft0
   102fc:	4011f1d3          	fcvt.s.d	ft3,ft3
   10300:	e0018553          	fmv.x.w	a0,ft3
   10304:	001015f3          	fsflags	a1,zero
   10308:	00000613          	li	a2,0
   1030c:	02d51e63          	bne	a0,a3,10348 <fail>
   10310:	02c59c63          	bne	a1,a2,10348 <fail>

0000000000010314 <test_12>:
   10314:	00002597          	auipc	a1,0x2
   10318:	d5c58593          	addi	a1,a1,-676 # 12070 <begin_signature>
   1031c:	0005b603          	ld	a2,0(a1)
   10320:	f2060153          	fmv.d.x	ft2,a2
   10324:	40117153          	fcvt.s.d	ft2,ft2
   10328:	42010153          	fcvt.d.s	ft2,ft2
   1032c:	e2010553          	fmv.x.d	a0,ft2
   10330:	000013b7          	lui	t2,0x1
   10334:	fff3839b          	addiw	t2,t2,-1
   10338:	03339393          	slli	t2,t2,0x33
   1033c:	00c00193          	li	gp,12
   10340:	00751463          	bne	a0,t2,10348 <fail>
   10344:	02301063          	bne	zero,gp,10364 <pass>

0000000000010348 <fail>:
   10348:	0ff0000f          	fence
   1034c:	00018063          	beqz	gp,1034c <fail+0x4>
   10350:	00119193          	slli	gp,gp,0x1
   10354:	0011e193          	ori	gp,gp,1
   10358:	05d00893          	li	a7,93
   1035c:	00018513          	mv	a0,gp
   10360:	00000073          	ecall

0000000000010364 <pass>:
   10364:	0ff0000f          	fence
   10368:	00100193          	li	gp,1
   1036c:	05d00893          	li	a7,93
   10370:	00000513          	li	a0,0
   10374:	00000073          	ecall
   10378:	c0001073          	unimp
