
rv64ui-p-sd:     file format elf64-littleriscv


Disassembly of section .text.init:

0000000000010000 <_start>:
   10000:	0480006f          	j	10048 <reset_vector>

0000000000010004 <trap_vector>:
   10004:	34202f73          	csrr	t5,mcause
   10008:	00800f93          	li	t6,8
   1000c:	03ff0863          	beq	t5,t6,1003c <write_tohost>
   10010:	00900f93          	li	t6,9
   10014:	03ff0463          	beq	t5,t6,1003c <write_tohost>
   10018:	00b00f93          	li	t6,11
   1001c:	03ff0063          	beq	t5,t6,1003c <write_tohost>
   10020:	00000f13          	li	t5,0
   10024:	000f0463          	beqz	t5,1002c <trap_vector+0x28>
   10028:	000f0067          	jr	t5
   1002c:	34202f73          	csrr	t5,mcause
   10030:	000f5463          	bgez	t5,10038 <handle_exception>
   10034:	0040006f          	j	10038 <handle_exception>

0000000000010038 <handle_exception>:
   10038:	5391e193          	ori	gp,gp,1337

000000000001003c <write_tohost>:
   1003c:	00001f17          	auipc	t5,0x1
   10040:	fc3f2223          	sw	gp,-60(t5) # 11000 <tohost>
   10044:	ff9ff06f          	j	1003c <write_tohost>

0000000000010048 <reset_vector>:
   10048:	00000093          	li	ra,0
   1004c:	00000113          	li	sp,0
   10050:	00000193          	li	gp,0
   10054:	00000213          	li	tp,0
   10058:	00000293          	li	t0,0
   1005c:	00000313          	li	t1,0
   10060:	00000393          	li	t2,0
   10064:	00000413          	li	s0,0
   10068:	00000493          	li	s1,0
   1006c:	00000513          	li	a0,0
   10070:	00000593          	li	a1,0
   10074:	00000613          	li	a2,0
   10078:	00000693          	li	a3,0
   1007c:	00000713          	li	a4,0
   10080:	00000793          	li	a5,0
   10084:	00000813          	li	a6,0
   10088:	00000893          	li	a7,0
   1008c:	00000913          	li	s2,0
   10090:	00000993          	li	s3,0
   10094:	00000a13          	li	s4,0
   10098:	00000a93          	li	s5,0
   1009c:	00000b13          	li	s6,0
   100a0:	00000b93          	li	s7,0
   100a4:	00000c13          	li	s8,0
   100a8:	00000c93          	li	s9,0
   100ac:	00000d13          	li	s10,0
   100b0:	00000d93          	li	s11,0
   100b4:	00000e13          	li	t3,0
   100b8:	00000e93          	li	t4,0
   100bc:	00000f13          	li	t5,0
   100c0:	00000f93          	li	t6,0
   100c4:	f1402573          	csrr	a0,mhartid
   100c8:	00051063          	bnez	a0,100c8 <reset_vector+0x80>
   100cc:	00000297          	auipc	t0,0x0
   100d0:	01028293          	addi	t0,t0,16 # 100dc <reset_vector+0x94>
   100d4:	30529073          	csrw	mtvec,t0
   100d8:	18005073          	csrwi	satp,0
   100dc:	00000297          	auipc	t0,0x0
   100e0:	02428293          	addi	t0,t0,36 # 10100 <reset_vector+0xb8>
   100e4:	30529073          	csrw	mtvec,t0
   100e8:	0010029b          	addiw	t0,zero,1
   100ec:	03529293          	slli	t0,t0,0x35
   100f0:	fff28293          	addi	t0,t0,-1
   100f4:	3b029073          	csrw	pmpaddr0,t0
   100f8:	01f00293          	li	t0,31
   100fc:	3a029073          	csrw	pmpcfg0,t0
   10100:	00000297          	auipc	t0,0x0
   10104:	01828293          	addi	t0,t0,24 # 10118 <reset_vector+0xd0>
   10108:	30529073          	csrw	mtvec,t0
   1010c:	30205073          	csrwi	medeleg,0
   10110:	30305073          	csrwi	mideleg,0
   10114:	30405073          	csrwi	mie,0
   10118:	00000193          	li	gp,0
   1011c:	00000297          	auipc	t0,0x0
   10120:	ee828293          	addi	t0,t0,-280 # 10004 <trap_vector>
   10124:	30529073          	csrw	mtvec,t0
   10128:	00100513          	li	a0,1
   1012c:	01f51513          	slli	a0,a0,0x1f
   10130:	00055c63          	bgez	a0,10148 <reset_vector+0x100>
   10134:	0ff0000f          	fence
   10138:	00100193          	li	gp,1
   1013c:	05d00893          	li	a7,93
   10140:	00000513          	li	a0,0
   10144:	00000073          	ecall
   10148:	00000293          	li	t0,0
   1014c:	00028a63          	beqz	t0,10160 <reset_vector+0x118>
   10150:	10529073          	csrw	stvec,t0
   10154:	0000b2b7          	lui	t0,0xb
   10158:	1092829b          	addiw	t0,t0,265
   1015c:	30229073          	csrw	medeleg,t0
   10160:	30005073          	csrwi	mstatus,0
   10164:	00000297          	auipc	t0,0x0
   10168:	01428293          	addi	t0,t0,20 # 10178 <test_2>
   1016c:	34129073          	csrw	mepc,t0
   10170:	f1402573          	csrr	a0,mhartid
   10174:	30200073          	mret

0000000000010178 <test_2>:
   10178:	00002097          	auipc	ra,0x2
   1017c:	e8808093          	addi	ra,ra,-376 # 12000 <begin_signature>
   10180:	00550137          	lui	sp,0x550
   10184:	0551011b          	addiw	sp,sp,85
   10188:	01011113          	slli	sp,sp,0x10
   1018c:	05510113          	addi	sp,sp,85 # 550055 <_end+0x53e005>
   10190:	01111113          	slli	sp,sp,0x11
   10194:	0aa10113          	addi	sp,sp,170
   10198:	0020b023          	sd	sp,0(ra)
   1019c:	0000b703          	ld	a4,0(ra)
   101a0:	005503b7          	lui	t2,0x550
   101a4:	0553839b          	addiw	t2,t2,85
   101a8:	01039393          	slli	t2,t2,0x10
   101ac:	05538393          	addi	t2,t2,85 # 550055 <_end+0x53e005>
   101b0:	01139393          	slli	t2,t2,0x11
   101b4:	0aa38393          	addi	t2,t2,170
   101b8:	00200193          	li	gp,2
   101bc:	60771063          	bne	a4,t2,107bc <fail>

00000000000101c0 <test_3>:
   101c0:	00002097          	auipc	ra,0x2
   101c4:	e4008093          	addi	ra,ra,-448 # 12000 <begin_signature>
   101c8:	ffd50137          	lui	sp,0xffd50
   101cc:	0551011b          	addiw	sp,sp,85
   101d0:	01011113          	slli	sp,sp,0x10
   101d4:	05510113          	addi	sp,sp,85 # ffffffffffd50055 <_end+0xffffffffffd3e005>
   101d8:	00d11113          	slli	sp,sp,0xd
   101dc:	00b10113          	addi	sp,sp,11
   101e0:	00c11113          	slli	sp,sp,0xc
   101e4:	a0010113          	addi	sp,sp,-1536
   101e8:	0020b423          	sd	sp,8(ra)
   101ec:	0080b703          	ld	a4,8(ra)
   101f0:	ffd503b7          	lui	t2,0xffd50
   101f4:	0553839b          	addiw	t2,t2,85
   101f8:	01039393          	slli	t2,t2,0x10
   101fc:	05538393          	addi	t2,t2,85 # ffffffffffd50055 <_end+0xffffffffffd3e005>
   10200:	00d39393          	slli	t2,t2,0xd
   10204:	00b38393          	addi	t2,t2,11
   10208:	00c39393          	slli	t2,t2,0xc
   1020c:	a0038393          	addi	t2,t2,-1536
   10210:	00300193          	li	gp,3
   10214:	5a771463          	bne	a4,t2,107bc <fail>

0000000000010218 <test_4>:
   10218:	00002097          	auipc	ra,0x2
   1021c:	de808093          	addi	ra,ra,-536 # 12000 <begin_signature>
   10220:	00550137          	lui	sp,0x550
   10224:	0551011b          	addiw	sp,sp,85
   10228:	00d11113          	slli	sp,sp,0xd
   1022c:	00b10113          	addi	sp,sp,11 # 55000b <_end+0x53dfbb>
   10230:	00c11113          	slli	sp,sp,0xc
   10234:	a0110113          	addi	sp,sp,-1535
   10238:	00c11113          	slli	sp,sp,0xc
   1023c:	aa010113          	addi	sp,sp,-1376
   10240:	0020b823          	sd	sp,16(ra)
   10244:	0100b703          	ld	a4,16(ra)
   10248:	005503b7          	lui	t2,0x550
   1024c:	0553839b          	addiw	t2,t2,85
   10250:	00d39393          	slli	t2,t2,0xd
   10254:	00b38393          	addi	t2,t2,11 # 55000b <_end+0x53dfbb>
   10258:	00c39393          	slli	t2,t2,0xc
   1025c:	a0138393          	addi	t2,t2,-1535
   10260:	00c39393          	slli	t2,t2,0xc
   10264:	aa038393          	addi	t2,t2,-1376
   10268:	00400193          	li	gp,4
   1026c:	54771863          	bne	a4,t2,107bc <fail>

0000000000010270 <test_5>:
   10270:	00002097          	auipc	ra,0x2
   10274:	d9008093          	addi	ra,ra,-624 # 12000 <begin_signature>
   10278:	fffd0137          	lui	sp,0xfffd0
   1027c:	0551011b          	addiw	sp,sp,85
   10280:	01011113          	slli	sp,sp,0x10
   10284:	05510113          	addi	sp,sp,85 # fffffffffffd0055 <_end+0xfffffffffffbe005>
   10288:	01011113          	slli	sp,sp,0x10
   1028c:	05510113          	addi	sp,sp,85
   10290:	00d11113          	slli	sp,sp,0xd
   10294:	00a10113          	addi	sp,sp,10
   10298:	0020bc23          	sd	sp,24(ra)
   1029c:	0180b703          	ld	a4,24(ra)
   102a0:	fffd03b7          	lui	t2,0xfffd0
   102a4:	0553839b          	addiw	t2,t2,85
   102a8:	01039393          	slli	t2,t2,0x10
   102ac:	05538393          	addi	t2,t2,85 # fffffffffffd0055 <_end+0xfffffffffffbe005>
   102b0:	01039393          	slli	t2,t2,0x10
   102b4:	05538393          	addi	t2,t2,85
   102b8:	00d39393          	slli	t2,t2,0xd
   102bc:	00a38393          	addi	t2,t2,10
   102c0:	00500193          	li	gp,5
   102c4:	4e771c63          	bne	a4,t2,107bc <fail>

00000000000102c8 <test_6>:
   102c8:	00002097          	auipc	ra,0x2
   102cc:	d7008093          	addi	ra,ra,-656 # 12038 <tdat8>
   102d0:	00550137          	lui	sp,0x550
   102d4:	0551011b          	addiw	sp,sp,85
   102d8:	01011113          	slli	sp,sp,0x10
   102dc:	05510113          	addi	sp,sp,85 # 550055 <_end+0x53e005>
   102e0:	01111113          	slli	sp,sp,0x11
   102e4:	0aa10113          	addi	sp,sp,170
   102e8:	fe20b423          	sd	sp,-24(ra)
   102ec:	fe80b703          	ld	a4,-24(ra)
   102f0:	005503b7          	lui	t2,0x550
   102f4:	0553839b          	addiw	t2,t2,85
   102f8:	01039393          	slli	t2,t2,0x10
   102fc:	05538393          	addi	t2,t2,85 # 550055 <_end+0x53e005>
   10300:	01139393          	slli	t2,t2,0x11
   10304:	0aa38393          	addi	t2,t2,170
   10308:	00600193          	li	gp,6
   1030c:	4a771863          	bne	a4,t2,107bc <fail>

0000000000010310 <test_7>:
   10310:	00002097          	auipc	ra,0x2
   10314:	d2808093          	addi	ra,ra,-728 # 12038 <tdat8>
   10318:	ffd50137          	lui	sp,0xffd50
   1031c:	0551011b          	addiw	sp,sp,85
   10320:	01011113          	slli	sp,sp,0x10
   10324:	05510113          	addi	sp,sp,85 # ffffffffffd50055 <_end+0xffffffffffd3e005>
   10328:	00d11113          	slli	sp,sp,0xd
   1032c:	00b10113          	addi	sp,sp,11
   10330:	00c11113          	slli	sp,sp,0xc
   10334:	a0010113          	addi	sp,sp,-1536
   10338:	fe20b823          	sd	sp,-16(ra)
   1033c:	ff00b703          	ld	a4,-16(ra)
   10340:	ffd503b7          	lui	t2,0xffd50
   10344:	0553839b          	addiw	t2,t2,85
   10348:	01039393          	slli	t2,t2,0x10
   1034c:	05538393          	addi	t2,t2,85 # ffffffffffd50055 <_end+0xffffffffffd3e005>
   10350:	00d39393          	slli	t2,t2,0xd
   10354:	00b38393          	addi	t2,t2,11
   10358:	00c39393          	slli	t2,t2,0xc
   1035c:	a0038393          	addi	t2,t2,-1536
   10360:	00700193          	li	gp,7
   10364:	44771c63          	bne	a4,t2,107bc <fail>

0000000000010368 <test_8>:
   10368:	00002097          	auipc	ra,0x2
   1036c:	cd008093          	addi	ra,ra,-816 # 12038 <tdat8>
   10370:	00550137          	lui	sp,0x550
   10374:	0551011b          	addiw	sp,sp,85
   10378:	00d11113          	slli	sp,sp,0xd
   1037c:	00b10113          	addi	sp,sp,11 # 55000b <_end+0x53dfbb>
   10380:	00c11113          	slli	sp,sp,0xc
   10384:	a0110113          	addi	sp,sp,-1535
   10388:	00c11113          	slli	sp,sp,0xc
   1038c:	aa010113          	addi	sp,sp,-1376
   10390:	fe20bc23          	sd	sp,-8(ra)
   10394:	ff80b703          	ld	a4,-8(ra)
   10398:	005503b7          	lui	t2,0x550
   1039c:	0553839b          	addiw	t2,t2,85
   103a0:	00d39393          	slli	t2,t2,0xd
   103a4:	00b38393          	addi	t2,t2,11 # 55000b <_end+0x53dfbb>
   103a8:	00c39393          	slli	t2,t2,0xc
   103ac:	a0138393          	addi	t2,t2,-1535
   103b0:	00c39393          	slli	t2,t2,0xc
   103b4:	aa038393          	addi	t2,t2,-1376
   103b8:	00800193          	li	gp,8
   103bc:	40771063          	bne	a4,t2,107bc <fail>

00000000000103c0 <test_9>:
   103c0:	00002097          	auipc	ra,0x2
   103c4:	c7808093          	addi	ra,ra,-904 # 12038 <tdat8>
   103c8:	fffd0137          	lui	sp,0xfffd0
   103cc:	0551011b          	addiw	sp,sp,85
   103d0:	01011113          	slli	sp,sp,0x10
   103d4:	05510113          	addi	sp,sp,85 # fffffffffffd0055 <_end+0xfffffffffffbe005>
   103d8:	01011113          	slli	sp,sp,0x10
   103dc:	05510113          	addi	sp,sp,85
   103e0:	00d11113          	slli	sp,sp,0xd
   103e4:	00a10113          	addi	sp,sp,10
   103e8:	0020b023          	sd	sp,0(ra)
   103ec:	0000b703          	ld	a4,0(ra)
   103f0:	fffd03b7          	lui	t2,0xfffd0
   103f4:	0553839b          	addiw	t2,t2,85
   103f8:	01039393          	slli	t2,t2,0x10
   103fc:	05538393          	addi	t2,t2,85 # fffffffffffd0055 <_end+0xfffffffffffbe005>
   10400:	01039393          	slli	t2,t2,0x10
   10404:	05538393          	addi	t2,t2,85
   10408:	00d39393          	slli	t2,t2,0xd
   1040c:	00a38393          	addi	t2,t2,10
   10410:	00900193          	li	gp,9
   10414:	3a771463          	bne	a4,t2,107bc <fail>

0000000000010418 <test_10>:
   10418:	00002097          	auipc	ra,0x2
   1041c:	c2808093          	addi	ra,ra,-984 # 12040 <tdat9>
   10420:	00247137          	lui	sp,0x247
   10424:	8ad1011b          	addiw	sp,sp,-1875
   10428:	00e11113          	slli	sp,sp,0xe
   1042c:	c0910113          	addi	sp,sp,-1015 # 246c09 <_end+0x234bb9>
   10430:	00d11113          	slli	sp,sp,0xd
   10434:	34510113          	addi	sp,sp,837
   10438:	00c11113          	slli	sp,sp,0xc
   1043c:	67810113          	addi	sp,sp,1656
   10440:	fe008213          	addi	tp,ra,-32
   10444:	02223023          	sd	sp,32(tp) # 20 <_start-0xffe0>
   10448:	0000b283          	ld	t0,0(ra)
   1044c:	002473b7          	lui	t2,0x247
   10450:	8ad3839b          	addiw	t2,t2,-1875
   10454:	00e39393          	slli	t2,t2,0xe
   10458:	c0938393          	addi	t2,t2,-1015 # 246c09 <_end+0x234bb9>
   1045c:	00d39393          	slli	t2,t2,0xd
   10460:	34538393          	addi	t2,t2,837
   10464:	00c39393          	slli	t2,t2,0xc
   10468:	67838393          	addi	t2,t2,1656
   1046c:	00a00193          	li	gp,10
   10470:	34729663          	bne	t0,t2,107bc <fail>

0000000000010474 <test_11>:
   10474:	00002097          	auipc	ra,0x2
   10478:	bcc08093          	addi	ra,ra,-1076 # 12040 <tdat9>
   1047c:	00b04137          	lui	sp,0xb04
   10480:	2611011b          	addiw	sp,sp,609
   10484:	00c11113          	slli	sp,sp,0xc
   10488:	30b10113          	addi	sp,sp,779 # b0430b <_end+0xaf22bb>
   1048c:	00f11113          	slli	sp,sp,0xf
   10490:	21310113          	addi	sp,sp,531
   10494:	00c11113          	slli	sp,sp,0xc
   10498:	09810113          	addi	sp,sp,152
   1049c:	ffd08093          	addi	ra,ra,-3
   104a0:	0020b5a3          	sd	sp,11(ra)
   104a4:	00002217          	auipc	tp,0x2
   104a8:	ba420213          	addi	tp,tp,-1116 # 12048 <tdat10>
   104ac:	00023283          	ld	t0,0(tp) # 0 <_start-0x10000>
   104b0:	00b043b7          	lui	t2,0xb04
   104b4:	2613839b          	addiw	t2,t2,609
   104b8:	00c39393          	slli	t2,t2,0xc
   104bc:	30b38393          	addi	t2,t2,779 # b0430b <_end+0xaf22bb>
   104c0:	00f39393          	slli	t2,t2,0xf
   104c4:	21338393          	addi	t2,t2,531
   104c8:	00c39393          	slli	t2,t2,0xc
   104cc:	09838393          	addi	t2,t2,152
   104d0:	00b00193          	li	gp,11
   104d4:	2e729463          	bne	t0,t2,107bc <fail>

00000000000104d8 <test_12>:
   104d8:	00c00193          	li	gp,12
   104dc:	00000213          	li	tp,0
   104e0:	0abbd0b7          	lui	ra,0xabbd
   104e4:	cdd0809b          	addiw	ra,ra,-803
   104e8:	00002117          	auipc	sp,0x2
   104ec:	b1810113          	addi	sp,sp,-1256 # 12000 <begin_signature>
   104f0:	00113023          	sd	ra,0(sp)
   104f4:	00013703          	ld	a4,0(sp)
   104f8:	0abbd3b7          	lui	t2,0xabbd
   104fc:	cdd3839b          	addiw	t2,t2,-803
   10500:	2a771e63          	bne	a4,t2,107bc <fail>
   10504:	00120213          	addi	tp,tp,1 # 1 <_start-0xffff>
   10508:	00200293          	li	t0,2
   1050c:	fc521ae3          	bne	tp,t0,104e0 <test_12+0x8>

0000000000010510 <test_13>:
   10510:	00d00193          	li	gp,13
   10514:	00000213          	li	tp,0
   10518:	0aabc0b7          	lui	ra,0xaabc
   1051c:	ccd0809b          	addiw	ra,ra,-819
   10520:	00002117          	auipc	sp,0x2
   10524:	ae010113          	addi	sp,sp,-1312 # 12000 <begin_signature>
   10528:	00000013          	nop
   1052c:	00113423          	sd	ra,8(sp)
   10530:	00813703          	ld	a4,8(sp)
   10534:	0aabc3b7          	lui	t2,0xaabc
   10538:	ccd3839b          	addiw	t2,t2,-819
   1053c:	28771063          	bne	a4,t2,107bc <fail>
   10540:	00120213          	addi	tp,tp,1 # 1 <_start-0xffff>
   10544:	00200293          	li	t0,2
   10548:	fc5218e3          	bne	tp,t0,10518 <test_13+0x8>

000000000001054c <test_14>:
   1054c:	00e00193          	li	gp,14
   10550:	00000213          	li	tp,0
   10554:	0daac0b7          	lui	ra,0xdaac
   10558:	bcc0809b          	addiw	ra,ra,-1076
   1055c:	00002117          	auipc	sp,0x2
   10560:	aa410113          	addi	sp,sp,-1372 # 12000 <begin_signature>
   10564:	00000013          	nop
   10568:	00000013          	nop
   1056c:	00113823          	sd	ra,16(sp)
   10570:	01013703          	ld	a4,16(sp)
   10574:	0daac3b7          	lui	t2,0xdaac
   10578:	bcc3839b          	addiw	t2,t2,-1076
   1057c:	24771063          	bne	a4,t2,107bc <fail>
   10580:	00120213          	addi	tp,tp,1 # 1 <_start-0xffff>
   10584:	00200293          	li	t0,2
   10588:	fc5216e3          	bne	tp,t0,10554 <test_14+0x8>

000000000001058c <test_15>:
   1058c:	00f00193          	li	gp,15
   10590:	00000213          	li	tp,0
   10594:	0ddab0b7          	lui	ra,0xddab
   10598:	bbc0809b          	addiw	ra,ra,-1092
   1059c:	00000013          	nop
   105a0:	00002117          	auipc	sp,0x2
   105a4:	a6010113          	addi	sp,sp,-1440 # 12000 <begin_signature>
   105a8:	00113c23          	sd	ra,24(sp)
   105ac:	01813703          	ld	a4,24(sp)
   105b0:	0ddab3b7          	lui	t2,0xddab
   105b4:	bbc3839b          	addiw	t2,t2,-1092
   105b8:	20771263          	bne	a4,t2,107bc <fail>
   105bc:	00120213          	addi	tp,tp,1 # 1 <_start-0xffff>
   105c0:	00200293          	li	t0,2
   105c4:	fc5218e3          	bne	tp,t0,10594 <test_15+0x8>

00000000000105c8 <test_16>:
   105c8:	01000193          	li	gp,16
   105cc:	00000213          	li	tp,0
   105d0:	0cddb0b7          	lui	ra,0xcddb
   105d4:	abb0809b          	addiw	ra,ra,-1349
   105d8:	00000013          	nop
   105dc:	00002117          	auipc	sp,0x2
   105e0:	a2410113          	addi	sp,sp,-1500 # 12000 <begin_signature>
   105e4:	00000013          	nop
   105e8:	02113023          	sd	ra,32(sp)
   105ec:	02013703          	ld	a4,32(sp)
   105f0:	0cddb3b7          	lui	t2,0xcddb
   105f4:	abb3839b          	addiw	t2,t2,-1349
   105f8:	1c771263          	bne	a4,t2,107bc <fail>
   105fc:	00120213          	addi	tp,tp,1 # 1 <_start-0xffff>
   10600:	00200293          	li	t0,2
   10604:	fc5216e3          	bne	tp,t0,105d0 <test_16+0x8>

0000000000010608 <test_17>:
   10608:	01100193          	li	gp,17
   1060c:	00000213          	li	tp,0
   10610:	0ccde0b7          	lui	ra,0xccde
   10614:	aab0809b          	addiw	ra,ra,-1365
   10618:	00000013          	nop
   1061c:	00000013          	nop
   10620:	00002117          	auipc	sp,0x2
   10624:	9e010113          	addi	sp,sp,-1568 # 12000 <begin_signature>
   10628:	02113423          	sd	ra,40(sp)
   1062c:	02813703          	ld	a4,40(sp)
   10630:	0ccde3b7          	lui	t2,0xccde
   10634:	aab3839b          	addiw	t2,t2,-1365
   10638:	18771263          	bne	a4,t2,107bc <fail>
   1063c:	00120213          	addi	tp,tp,1 # 1 <_start-0xffff>
   10640:	00200293          	li	t0,2
   10644:	fc5216e3          	bne	tp,t0,10610 <test_17+0x8>

0000000000010648 <test_18>:
   10648:	01200193          	li	gp,18
   1064c:	00000213          	li	tp,0
   10650:	00002117          	auipc	sp,0x2
   10654:	9b010113          	addi	sp,sp,-1616 # 12000 <begin_signature>
   10658:	001120b7          	lui	ra,0x112
   1065c:	2330809b          	addiw	ra,ra,563
   10660:	00113023          	sd	ra,0(sp)
   10664:	00013703          	ld	a4,0(sp)
   10668:	001123b7          	lui	t2,0x112
   1066c:	2333839b          	addiw	t2,t2,563
   10670:	14771663          	bne	a4,t2,107bc <fail>
   10674:	00120213          	addi	tp,tp,1 # 1 <_start-0xffff>
   10678:	00200293          	li	t0,2
   1067c:	fc521ae3          	bne	tp,t0,10650 <test_18+0x8>

0000000000010680 <test_19>:
   10680:	01300193          	li	gp,19
   10684:	00000213          	li	tp,0
   10688:	00002117          	auipc	sp,0x2
   1068c:	97810113          	addi	sp,sp,-1672 # 12000 <begin_signature>
   10690:	300110b7          	lui	ra,0x30011
   10694:	2230809b          	addiw	ra,ra,547
   10698:	00000013          	nop
   1069c:	00113423          	sd	ra,8(sp)
   106a0:	00813703          	ld	a4,8(sp)
   106a4:	300113b7          	lui	t2,0x30011
   106a8:	2233839b          	addiw	t2,t2,547
   106ac:	10771863          	bne	a4,t2,107bc <fail>
   106b0:	00120213          	addi	tp,tp,1 # 1 <_start-0xffff>
   106b4:	00200293          	li	t0,2
   106b8:	fc5218e3          	bne	tp,t0,10688 <test_19+0x8>

00000000000106bc <test_20>:
   106bc:	01400193          	li	gp,20
   106c0:	00000213          	li	tp,0
   106c4:	00002117          	auipc	sp,0x2
   106c8:	93c10113          	addi	sp,sp,-1732 # 12000 <begin_signature>
   106cc:	330010b7          	lui	ra,0x33001
   106d0:	1220809b          	addiw	ra,ra,290
   106d4:	00000013          	nop
   106d8:	00000013          	nop
   106dc:	00113823          	sd	ra,16(sp)
   106e0:	01013703          	ld	a4,16(sp)
   106e4:	330013b7          	lui	t2,0x33001
   106e8:	1223839b          	addiw	t2,t2,290
   106ec:	0c771863          	bne	a4,t2,107bc <fail>
   106f0:	00120213          	addi	tp,tp,1 # 1 <_start-0xffff>
   106f4:	00200293          	li	t0,2
   106f8:	fc5216e3          	bne	tp,t0,106c4 <test_20+0x8>

00000000000106fc <test_21>:
   106fc:	01500193          	li	gp,21
   10700:	00000213          	li	tp,0
   10704:	00002117          	auipc	sp,0x2
   10708:	8fc10113          	addi	sp,sp,-1796 # 12000 <begin_signature>
   1070c:	00000013          	nop
   10710:	233000b7          	lui	ra,0x23300
   10714:	1120809b          	addiw	ra,ra,274
   10718:	00113c23          	sd	ra,24(sp)
   1071c:	01813703          	ld	a4,24(sp)
   10720:	233003b7          	lui	t2,0x23300
   10724:	1123839b          	addiw	t2,t2,274
   10728:	08771a63          	bne	a4,t2,107bc <fail>
   1072c:	00120213          	addi	tp,tp,1 # 1 <_start-0xffff>
   10730:	00200293          	li	t0,2
   10734:	fc5218e3          	bne	tp,t0,10704 <test_21+0x8>

0000000000010738 <test_22>:
   10738:	01600193          	li	gp,22
   1073c:	00000213          	li	tp,0
   10740:	00002117          	auipc	sp,0x2
   10744:	8c010113          	addi	sp,sp,-1856 # 12000 <begin_signature>
   10748:	00000013          	nop
   1074c:	223300b7          	lui	ra,0x22330
   10750:	0110809b          	addiw	ra,ra,17
   10754:	00000013          	nop
   10758:	02113023          	sd	ra,32(sp)
   1075c:	02013703          	ld	a4,32(sp)
   10760:	223303b7          	lui	t2,0x22330
   10764:	0113839b          	addiw	t2,t2,17
   10768:	04771a63          	bne	a4,t2,107bc <fail>
   1076c:	00120213          	addi	tp,tp,1 # 1 <_start-0xffff>
   10770:	00200293          	li	t0,2
   10774:	fc5216e3          	bne	tp,t0,10740 <test_22+0x8>

0000000000010778 <test_23>:
   10778:	01700193          	li	gp,23
   1077c:	00000213          	li	tp,0
   10780:	00002117          	auipc	sp,0x2
   10784:	88010113          	addi	sp,sp,-1920 # 12000 <begin_signature>
   10788:	00000013          	nop
   1078c:	00000013          	nop
   10790:	122330b7          	lui	ra,0x12233
   10794:	0010809b          	addiw	ra,ra,1
   10798:	02113423          	sd	ra,40(sp)
   1079c:	02813703          	ld	a4,40(sp)
   107a0:	122333b7          	lui	t2,0x12233
   107a4:	0013839b          	addiw	t2,t2,1
   107a8:	00771a63          	bne	a4,t2,107bc <fail>
   107ac:	00120213          	addi	tp,tp,1 # 1 <_start-0xffff>
   107b0:	00200293          	li	t0,2
   107b4:	fc5216e3          	bne	tp,t0,10780 <test_23+0x8>
   107b8:	02301063          	bne	zero,gp,107d8 <pass>

00000000000107bc <fail>:
   107bc:	0ff0000f          	fence
   107c0:	00018063          	beqz	gp,107c0 <fail+0x4>
   107c4:	00119193          	slli	gp,gp,0x1
   107c8:	0011e193          	ori	gp,gp,1
   107cc:	05d00893          	li	a7,93
   107d0:	00018513          	mv	a0,gp
   107d4:	00000073          	ecall

00000000000107d8 <pass>:
   107d8:	0ff0000f          	fence
   107dc:	00100193          	li	gp,1
   107e0:	05d00893          	li	a7,93
   107e4:	00000513          	li	a0,0
   107e8:	00000073          	ecall
   107ec:	c0001073          	unimp
   107f0:	0000                	unimp
   107f2:	0000                	unimp
   107f4:	0000                	unimp
   107f6:	0000                	unimp
   107f8:	0000                	unimp
   107fa:	0000                	unimp

Disassembly of section .data:

0000000000012000 <begin_signature>:
   12000:	deadbeef          	jal	t4,fffffffffffed5ea <_end+0xfffffffffffdb59a>
   12004:	deadbeef          	jal	t4,fffffffffffed5ee <_end+0xfffffffffffdb59e>

0000000000012008 <tdat2>:
   12008:	deadbeef          	jal	t4,fffffffffffed5f2 <_end+0xfffffffffffdb5a2>
   1200c:	deadbeef          	jal	t4,fffffffffffed5f6 <_end+0xfffffffffffdb5a6>

0000000000012010 <tdat3>:
   12010:	deadbeef          	jal	t4,fffffffffffed5fa <_end+0xfffffffffffdb5aa>
   12014:	deadbeef          	jal	t4,fffffffffffed5fe <_end+0xfffffffffffdb5ae>

0000000000012018 <tdat4>:
   12018:	deadbeef          	jal	t4,fffffffffffed602 <_end+0xfffffffffffdb5b2>
   1201c:	deadbeef          	jal	t4,fffffffffffed606 <_end+0xfffffffffffdb5b6>

0000000000012020 <tdat5>:
   12020:	deadbeef          	jal	t4,fffffffffffed60a <_end+0xfffffffffffdb5ba>
   12024:	deadbeef          	jal	t4,fffffffffffed60e <_end+0xfffffffffffdb5be>

0000000000012028 <tdat6>:
   12028:	deadbeef          	jal	t4,fffffffffffed612 <_end+0xfffffffffffdb5c2>
   1202c:	deadbeef          	jal	t4,fffffffffffed616 <_end+0xfffffffffffdb5c6>

0000000000012030 <tdat7>:
   12030:	deadbeef          	jal	t4,fffffffffffed61a <_end+0xfffffffffffdb5ca>
   12034:	deadbeef          	jal	t4,fffffffffffed61e <_end+0xfffffffffffdb5ce>

0000000000012038 <tdat8>:
   12038:	deadbeef          	jal	t4,fffffffffffed622 <_end+0xfffffffffffdb5d2>
   1203c:	deadbeef          	jal	t4,fffffffffffed626 <_end+0xfffffffffffdb5d6>

0000000000012040 <tdat9>:
   12040:	deadbeef          	jal	t4,fffffffffffed62a <_end+0xfffffffffffdb5da>
   12044:	deadbeef          	jal	t4,fffffffffffed62e <_end+0xfffffffffffdb5de>

0000000000012048 <tdat10>:
   12048:	deadbeef          	jal	t4,fffffffffffed632 <_end+0xfffffffffffdb5e2>
   1204c:	deadbeef          	jal	t4,fffffffffffed636 <_end+0xfffffffffffdb5e6>
