
rv64ui-p-lb:     file format elf64-littleriscv


Disassembly of section .text.init:

0000000000010000 <_start>:
   10000:	0480006f          	j	10048 <reset_vector>

0000000000010004 <trap_vector>:
   10004:	34202f73          	csrr	t5,mcause
   10008:	00800f93          	li	t6,8
   1000c:	03ff0863          	beq	t5,t6,1003c <write_tohost>
   10010:	00900f93          	li	t6,9
   10014:	03ff0463          	beq	t5,t6,1003c <write_tohost>
   10018:	00b00f93          	li	t6,11
   1001c:	03ff0063          	beq	t5,t6,1003c <write_tohost>
   10020:	00000f13          	li	t5,0
   10024:	000f0463          	beqz	t5,1002c <trap_vector+0x28>
   10028:	000f0067          	jr	t5
   1002c:	34202f73          	csrr	t5,mcause
   10030:	000f5463          	bgez	t5,10038 <handle_exception>
   10034:	0040006f          	j	10038 <handle_exception>

0000000000010038 <handle_exception>:
   10038:	5391e193          	ori	gp,gp,1337

000000000001003c <write_tohost>:
   1003c:	00001f17          	auipc	t5,0x1
   10040:	fc3f2223          	sw	gp,-60(t5) # 11000 <tohost>
   10044:	ff9ff06f          	j	1003c <write_tohost>

0000000000010048 <reset_vector>:
   10048:	00000093          	li	ra,0
   1004c:	00000113          	li	sp,0
   10050:	00000193          	li	gp,0
   10054:	00000213          	li	tp,0
   10058:	00000293          	li	t0,0
   1005c:	00000313          	li	t1,0
   10060:	00000393          	li	t2,0
   10064:	00000413          	li	s0,0
   10068:	00000493          	li	s1,0
   1006c:	00000513          	li	a0,0
   10070:	00000593          	li	a1,0
   10074:	00000613          	li	a2,0
   10078:	00000693          	li	a3,0
   1007c:	00000713          	li	a4,0
   10080:	00000793          	li	a5,0
   10084:	00000813          	li	a6,0
   10088:	00000893          	li	a7,0
   1008c:	00000913          	li	s2,0
   10090:	00000993          	li	s3,0
   10094:	00000a13          	li	s4,0
   10098:	00000a93          	li	s5,0
   1009c:	00000b13          	li	s6,0
   100a0:	00000b93          	li	s7,0
   100a4:	00000c13          	li	s8,0
   100a8:	00000c93          	li	s9,0
   100ac:	00000d13          	li	s10,0
   100b0:	00000d93          	li	s11,0
   100b4:	00000e13          	li	t3,0
   100b8:	00000e93          	li	t4,0
   100bc:	00000f13          	li	t5,0
   100c0:	00000f93          	li	t6,0
   100c4:	f1402573          	csrr	a0,mhartid
   100c8:	00051063          	bnez	a0,100c8 <reset_vector+0x80>
   100cc:	00000297          	auipc	t0,0x0
   100d0:	01028293          	addi	t0,t0,16 # 100dc <reset_vector+0x94>
   100d4:	30529073          	csrw	mtvec,t0
   100d8:	18005073          	csrwi	satp,0
   100dc:	00000297          	auipc	t0,0x0
   100e0:	02428293          	addi	t0,t0,36 # 10100 <reset_vector+0xb8>
   100e4:	30529073          	csrw	mtvec,t0
   100e8:	0010029b          	addiw	t0,zero,1
   100ec:	03529293          	slli	t0,t0,0x35
   100f0:	fff28293          	addi	t0,t0,-1
   100f4:	3b029073          	csrw	pmpaddr0,t0
   100f8:	01f00293          	li	t0,31
   100fc:	3a029073          	csrw	pmpcfg0,t0
   10100:	00000297          	auipc	t0,0x0
   10104:	01828293          	addi	t0,t0,24 # 10118 <reset_vector+0xd0>
   10108:	30529073          	csrw	mtvec,t0
   1010c:	30205073          	csrwi	medeleg,0
   10110:	30305073          	csrwi	mideleg,0
   10114:	30405073          	csrwi	mie,0
   10118:	00000193          	li	gp,0
   1011c:	00000297          	auipc	t0,0x0
   10120:	ee828293          	addi	t0,t0,-280 # 10004 <trap_vector>
   10124:	30529073          	csrw	mtvec,t0
   10128:	00100513          	li	a0,1
   1012c:	01f51513          	slli	a0,a0,0x1f
   10130:	00055c63          	bgez	a0,10148 <reset_vector+0x100>
   10134:	0ff0000f          	fence
   10138:	00100193          	li	gp,1
   1013c:	05d00893          	li	a7,93
   10140:	00000513          	li	a0,0
   10144:	00000073          	ecall
   10148:	00000293          	li	t0,0
   1014c:	00028a63          	beqz	t0,10160 <reset_vector+0x118>
   10150:	10529073          	csrw	stvec,t0
   10154:	0000b2b7          	lui	t0,0xb
   10158:	1092829b          	addiw	t0,t0,265
   1015c:	30229073          	csrw	medeleg,t0
   10160:	30005073          	csrwi	mstatus,0
   10164:	00000297          	auipc	t0,0x0
   10168:	01428293          	addi	t0,t0,20 # 10178 <test_2>
   1016c:	34129073          	csrw	mepc,t0
   10170:	f1402573          	csrr	a0,mhartid
   10174:	30200073          	mret

0000000000010178 <test_2>:
   10178:	00002097          	auipc	ra,0x2
   1017c:	e8808093          	addi	ra,ra,-376 # 12000 <begin_signature>
   10180:	00008703          	lb	a4,0(ra)
   10184:	fff00393          	li	t2,-1
   10188:	00200193          	li	gp,2
   1018c:	22771c63          	bne	a4,t2,103c4 <fail>

0000000000010190 <test_3>:
   10190:	00002097          	auipc	ra,0x2
   10194:	e7008093          	addi	ra,ra,-400 # 12000 <begin_signature>
   10198:	00108703          	lb	a4,1(ra)
   1019c:	00000393          	li	t2,0
   101a0:	00300193          	li	gp,3
   101a4:	22771063          	bne	a4,t2,103c4 <fail>

00000000000101a8 <test_4>:
   101a8:	00002097          	auipc	ra,0x2
   101ac:	e5808093          	addi	ra,ra,-424 # 12000 <begin_signature>
   101b0:	00208703          	lb	a4,2(ra)
   101b4:	ff000393          	li	t2,-16
   101b8:	00400193          	li	gp,4
   101bc:	20771463          	bne	a4,t2,103c4 <fail>

00000000000101c0 <test_5>:
   101c0:	00002097          	auipc	ra,0x2
   101c4:	e4008093          	addi	ra,ra,-448 # 12000 <begin_signature>
   101c8:	00308703          	lb	a4,3(ra)
   101cc:	00f00393          	li	t2,15
   101d0:	00500193          	li	gp,5
   101d4:	1e771863          	bne	a4,t2,103c4 <fail>

00000000000101d8 <test_6>:
   101d8:	00002097          	auipc	ra,0x2
   101dc:	e2b08093          	addi	ra,ra,-469 # 12003 <tdat4>
   101e0:	ffd08703          	lb	a4,-3(ra)
   101e4:	fff00393          	li	t2,-1
   101e8:	00600193          	li	gp,6
   101ec:	1c771c63          	bne	a4,t2,103c4 <fail>

00000000000101f0 <test_7>:
   101f0:	00002097          	auipc	ra,0x2
   101f4:	e1308093          	addi	ra,ra,-493 # 12003 <tdat4>
   101f8:	ffe08703          	lb	a4,-2(ra)
   101fc:	00000393          	li	t2,0
   10200:	00700193          	li	gp,7
   10204:	1c771063          	bne	a4,t2,103c4 <fail>

0000000000010208 <test_8>:
   10208:	00002097          	auipc	ra,0x2
   1020c:	dfb08093          	addi	ra,ra,-517 # 12003 <tdat4>
   10210:	fff08703          	lb	a4,-1(ra)
   10214:	ff000393          	li	t2,-16
   10218:	00800193          	li	gp,8
   1021c:	1a771463          	bne	a4,t2,103c4 <fail>

0000000000010220 <test_9>:
   10220:	00002097          	auipc	ra,0x2
   10224:	de308093          	addi	ra,ra,-541 # 12003 <tdat4>
   10228:	00008703          	lb	a4,0(ra)
   1022c:	00f00393          	li	t2,15
   10230:	00900193          	li	gp,9
   10234:	18771863          	bne	a4,t2,103c4 <fail>

0000000000010238 <test_10>:
   10238:	00002097          	auipc	ra,0x2
   1023c:	dc808093          	addi	ra,ra,-568 # 12000 <begin_signature>
   10240:	fe008093          	addi	ra,ra,-32
   10244:	02008283          	lb	t0,32(ra)
   10248:	fff00393          	li	t2,-1
   1024c:	00a00193          	li	gp,10
   10250:	16729a63          	bne	t0,t2,103c4 <fail>

0000000000010254 <test_11>:
   10254:	00002097          	auipc	ra,0x2
   10258:	dac08093          	addi	ra,ra,-596 # 12000 <begin_signature>
   1025c:	ffa08093          	addi	ra,ra,-6
   10260:	00708283          	lb	t0,7(ra)
   10264:	00000393          	li	t2,0
   10268:	00b00193          	li	gp,11
   1026c:	14729c63          	bne	t0,t2,103c4 <fail>

0000000000010270 <test_12>:
   10270:	00c00193          	li	gp,12
   10274:	00000213          	li	tp,0
   10278:	00002097          	auipc	ra,0x2
   1027c:	d8908093          	addi	ra,ra,-631 # 12001 <tdat2>
   10280:	00108703          	lb	a4,1(ra)
   10284:	00070313          	mv	t1,a4
   10288:	ff000393          	li	t2,-16
   1028c:	12731c63          	bne	t1,t2,103c4 <fail>
   10290:	00120213          	addi	tp,tp,1 # 1 <_start-0xffff>
   10294:	00200293          	li	t0,2
   10298:	fe5210e3          	bne	tp,t0,10278 <test_12+0x8>

000000000001029c <test_13>:
   1029c:	00d00193          	li	gp,13
   102a0:	00000213          	li	tp,0
   102a4:	00002097          	auipc	ra,0x2
   102a8:	d5e08093          	addi	ra,ra,-674 # 12002 <tdat3>
   102ac:	00108703          	lb	a4,1(ra)
   102b0:	00000013          	nop
   102b4:	00070313          	mv	t1,a4
   102b8:	00f00393          	li	t2,15
   102bc:	10731463          	bne	t1,t2,103c4 <fail>
   102c0:	00120213          	addi	tp,tp,1 # 1 <_start-0xffff>
   102c4:	00200293          	li	t0,2
   102c8:	fc521ee3          	bne	tp,t0,102a4 <test_13+0x8>

00000000000102cc <test_14>:
   102cc:	00e00193          	li	gp,14
   102d0:	00000213          	li	tp,0
   102d4:	00002097          	auipc	ra,0x2
   102d8:	d2c08093          	addi	ra,ra,-724 # 12000 <begin_signature>
   102dc:	00108703          	lb	a4,1(ra)
   102e0:	00000013          	nop
   102e4:	00000013          	nop
   102e8:	00070313          	mv	t1,a4
   102ec:	00000393          	li	t2,0
   102f0:	0c731a63          	bne	t1,t2,103c4 <fail>
   102f4:	00120213          	addi	tp,tp,1 # 1 <_start-0xffff>
   102f8:	00200293          	li	t0,2
   102fc:	fc521ce3          	bne	tp,t0,102d4 <test_14+0x8>

0000000000010300 <test_15>:
   10300:	00f00193          	li	gp,15
   10304:	00000213          	li	tp,0
   10308:	00002097          	auipc	ra,0x2
   1030c:	cf908093          	addi	ra,ra,-775 # 12001 <tdat2>
   10310:	00108703          	lb	a4,1(ra)
   10314:	ff000393          	li	t2,-16
   10318:	0a771663          	bne	a4,t2,103c4 <fail>
   1031c:	00120213          	addi	tp,tp,1 # 1 <_start-0xffff>
   10320:	00200293          	li	t0,2
   10324:	fe5212e3          	bne	tp,t0,10308 <test_15+0x8>

0000000000010328 <test_16>:
   10328:	01000193          	li	gp,16
   1032c:	00000213          	li	tp,0
   10330:	00002097          	auipc	ra,0x2
   10334:	cd208093          	addi	ra,ra,-814 # 12002 <tdat3>
   10338:	00000013          	nop
   1033c:	00108703          	lb	a4,1(ra)
   10340:	00f00393          	li	t2,15
   10344:	08771063          	bne	a4,t2,103c4 <fail>
   10348:	00120213          	addi	tp,tp,1 # 1 <_start-0xffff>
   1034c:	00200293          	li	t0,2
   10350:	fe5210e3          	bne	tp,t0,10330 <test_16+0x8>

0000000000010354 <test_17>:
   10354:	01100193          	li	gp,17
   10358:	00000213          	li	tp,0
   1035c:	00002097          	auipc	ra,0x2
   10360:	ca408093          	addi	ra,ra,-860 # 12000 <begin_signature>
   10364:	00000013          	nop
   10368:	00000013          	nop
   1036c:	00108703          	lb	a4,1(ra)
   10370:	00000393          	li	t2,0
   10374:	04771863          	bne	a4,t2,103c4 <fail>
   10378:	00120213          	addi	tp,tp,1 # 1 <_start-0xffff>
   1037c:	00200293          	li	t0,2
   10380:	fc521ee3          	bne	tp,t0,1035c <test_17+0x8>

0000000000010384 <test_18>:
   10384:	00002297          	auipc	t0,0x2
   10388:	c7c28293          	addi	t0,t0,-900 # 12000 <begin_signature>
   1038c:	00028103          	lb	sp,0(t0)
   10390:	00200113          	li	sp,2
   10394:	00200393          	li	t2,2
   10398:	01200193          	li	gp,18
   1039c:	02711463          	bne	sp,t2,103c4 <fail>

00000000000103a0 <test_19>:
   103a0:	00002297          	auipc	t0,0x2
   103a4:	c6028293          	addi	t0,t0,-928 # 12000 <begin_signature>
   103a8:	00028103          	lb	sp,0(t0)
   103ac:	00000013          	nop
   103b0:	00200113          	li	sp,2
   103b4:	00200393          	li	t2,2
   103b8:	01300193          	li	gp,19
   103bc:	00711463          	bne	sp,t2,103c4 <fail>
   103c0:	02301063          	bne	zero,gp,103e0 <pass>

00000000000103c4 <fail>:
   103c4:	0ff0000f          	fence
   103c8:	00018063          	beqz	gp,103c8 <fail+0x4>
   103cc:	00119193          	slli	gp,gp,0x1
   103d0:	0011e193          	ori	gp,gp,1
   103d4:	05d00893          	li	a7,93
   103d8:	00018513          	mv	a0,gp
   103dc:	00000073          	ecall

00000000000103e0 <pass>:
   103e0:	0ff0000f          	fence
   103e4:	00100193          	li	gp,1
   103e8:	05d00893          	li	a7,93
   103ec:	00000513          	li	a0,0
   103f0:	00000073          	ecall
   103f4:	c0001073          	unimp
   103f8:	0000                	unimp
   103fa:	0000                	unimp
